(dp0
V100.0.115.228
p1
VFGHRSDV
p2
sV100.14.157.20
p3
VFGHRSDV
p4
sV103.119.112.78
p5
VFGRSDV
p6
sV104.168.53.37
p7
VFGHRSDV
p8
sV104.192.5.248
p9
VFGHRSDV
p10
sV104.192.88.97
p11
VFGHRSDV
p12
sV104.200.20.46
p13
VEFGRSDV
p14
sV104.206.237.23
p15
VFGHRSDV
p16
sV104.206.237.24
p17
VFGHRSDV
p18
sV104.218.63.72
p19
VEFGHRSDV
p20
sV104.218.63.73
p21
VEFGHRSDV
p22
sV104.218.63.74
p23
VEFGHRSDV
p24
sV104.218.63.75
p25
VEFGHRSDV
p26
sV104.218.63.76
p27
VEFGHRSDV
p28
sV104.218.63.77
p29
VEFGHRSDV
p30
sV104.223.123.100
p31
VEFGHRSDV
p32
sV104.223.123.101
p33
VEFGHRSDV
p34
sV104.223.123.98
p35
VEFGHRSDV
p36
sV104.223.123.99
p37
VEFGHRSDV
p38
sV104.223.45.150
p39
VFGRSDV
p40
sV104.223.49.66
p41
VEFGHRSDV
p42
sV104.225.220.27
p43
VFGHRSDV
p44
sV104.225.222.232
p45
VFGHRSDV
p46
sV104.236.19.120
p47
VFGRSDV
p48
sV104.236.52.16
p49
VFGHRSDV
p50
sV104.238.167.111
p51
VFGRSDV
p52
sV104.238.188.98
p53
VFGRSDV
p54
sV104.244.72.155
p55
VFGHRSDV
p56
sV104.244.73.126
p57
VEFGHRSDV
p58
sV104.244.74.78
p59
VEFGHRSDV
p60
sV104.244.75.105
p61
VFGHRSDV
p62
sV104.244.75.194
p63
VFGHRSDV
p64
sV104.244.75.82
p65
VEFGHRSDV
p66
sV104.244.76.13
p67
VEFGHRSDV
p68
sV104.244.76.24
p69
VFGRSDV
p70
sV104.244.77.111
p71
VFGHRSDV
p72
sV104.244.78.147
p73
VFGRSDV
p74
sV104.244.78.163
p75
VFGRSDV
p76
sV104.244.78.207
p77
VEFGHRSDV
p78
sV104.244.79.68
p79
VFGHRSDV
p80
sV104.37.192.156
p81
VFGHRSDV
p82
sV104.42.7.97
p83
VFGHRSDV
p84
sV107.137.234.109
p85
VFGHRSDV
p86
sV107.155.93.197
p87
VFGHRSDV
p88
sV107.170.219.188
p89
VFGHRSDV
p90
sV107.181.160.156
p91
VFGHRSDV
p92
sV107.181.174.22
p93
VFGHRSDV
p94
sV107.181.187.172
p95
VFGHRSDV
p96
sV107.181.187.55
p97
VEFGHRSDV
p98
sV108.32.49.20
p99
VFGHRSDV
p100
sV108.39.229.147
p101
VFGRSDV
p102
sV108.53.208.157
p103
VFGHRSDV
p104
sV108.61.165.26
p105
VFGRSDV
p106
sV108.61.99.149
p107
VFGRSDV
p108
sV109.105.109.162
p109
VFGHRSDV
p110
sV109.197.193.160
p111
VFGRSDV
p112
sV109.201.133.100
p113
VEFGHRSDV
p114
sV109.236.88.199
p115
VFGHRSDV
p116
sV109.236.88.7
p117
VFGRSDV
p118
sV109.236.90.209
p119
VFGRSDVX
p120
sV109.238.11.6
p121
VFGHRSDV
p122
sV109.239.79.181
p123
VFGRSDV
p124
sV109.248.9.8
p125
VEFGHRSDV
p126
sV109.254.86.54
p127
VFGRSDV
p128
sV109.68.191.132
p129
VFGRSDV
p130
sV109.68.191.159
p131
VFGRSDV
p132
sV109.69.67.17
p133
VEFGRSDV
p134
sV109.70.100.10
p135
VFGRSDV
p136
sV109.70.100.11
p137
VFGRSDV
p138
sV109.70.100.12
p139
VFGRSDV
p140
sV109.70.100.13
p141
VFGRSDV
p142
sV109.70.100.14
p143
VFGRSDV
p144
sV109.70.100.15
p145
VFGRSDV
p146
sV109.70.100.16
p147
VFGRSDV
p148
sV109.70.100.17
p149
VFGRSDV
p150
sV109.70.100.2
p151
VEFGRSDV
p152
sV109.70.100.3
p153
VFGRSDV
p154
sV109.70.100.4
p155
VFGRSDV
p156
sV109.70.100.5
p157
VFGRSDV
p158
sV109.70.100.6
p159
VFGRSDV
p160
sV109.70.100.7
p161
VFGRSDV
p162
sV109.70.100.8
p163
VFGRSDV
p164
sV109.70.100.9
p165
VFGRSDV
p166
sV109.72.83.202
p167
VFGHRSDV
p168
sV109.74.11.81
p169
VFGHRSDV
p170
sV109.87.25.148
p171
VFGHRSDV
p172
sV109.9.160.231
p173
VFGHRSDV
p174
sV109.91.44.58
p175
VFGHRSDV
p176
sV113.255.93.81
p177
VFGRSDV
p178
sV116.93.119.149
p179
VEFGHRSDV
p180
sV12.235.151.200
p181
VFGHRSDV
p182
sV128.12.177.59
p183
VFGHRSDV
p184
sV128.199.55.207
p185
VFGHRSDV
p186
sV128.208.2.233
p187
VFGHRSDV
p188
sV128.232.18.58
p189
VFGRSDV
p190
sV128.31.0.61
p191
VFGHRSDV
p192
sV128.39.8.29
p193
VFGHRSDV
p194
sV128.72.208.131
p195
VFGHRSDV
p196
sV129.100.38.88
p197
VFGHRSDV
p198
sV129.13.131.140
p199
VFGRSDV
p200
sV130.149.80.199
p201
VEFGRSDV
p202
sV130.185.250.214
p203
VFGRSDV
p204
sV130.185.250.3
p205
VFGRSDV
p206
sV130.185.250.76
p207
VFGRSDV
p208
sV130.193.15.186
p209
VFGRSDV
p210
sV130.193.15.49
p211
VFGRSDV
p212
sV130.225.254.103
p213
VFGHRSDV
p214
sV130.230.113.228
p215
VFGHRSDV
p216
sV130.230.113.229
p217
VFGHRSDV
p218
sV130.230.113.230
p219
VFGHRSDV
p220
sV130.230.113.231
p221
VFGHRSDV
p222
sV130.230.113.232
p223
VFGHRSDV
p224
sV130.230.113.233
p225
VFGHRSDV
p226
sV130.230.113.234
p227
VFGHRSDV
p228
sV130.230.113.235
p229
VFGHRSDV
p230
sV130.230.113.236
p231
VFGHRSDV
p232
sV130.230.113.237
p233
VFGHRSDV
p234
sV130.245.183.201
p235
VFGHRSDV
p236
sV131.188.40.188
p237
VFGHRSDV
p238
sV132.248.241.5
p239
VFGHRSDV
p240
sV134.102.200.101
p241
VFGHRSDV
p242
sV134.119.179.55
p243
VFGHRSDV
p244
sV134.119.26.61
p245
VFGHRSDV
p246
sV134.119.32.208
p247
VFGRSDV
p248
sV134.130.181.212
p249
VFGHRSDV
p250
sV134.130.181.43
p251
VFGHRSDV
p252
sV134.19.177.109
p253
VFGRSDV
p254
sV136.144.216.133
p255
VFGRSDV
p256
sV136.243.114.62
p257
VFGRSDV
p258
sV136.243.14.241
p259
VFGHRSDV
p260
sV136.243.176.148
p261
VFGRSDV
p262
sV136.243.214.137
p263
VFGHRSDV
p264
sV136.243.243.6
p265
VFGRSDV
p266
sV136.243.70.198
p267
VFGHRSDV
p268
sV136.29.40.162
p269
VFGRSDV
p270
sV136.32.253.177
p271
VFGRSDV
p272
sV136.33.2.132
p273
VFGRSDV
p274
sV136.49.15.24
p275
VFGRSDV
p276
sV136.62.14.47
p277
VFGHRSDV
p278
sV136.62.51.133
p279
VFGRSDV
p280
sV137.226.111.123
p281
VFGHRSDV
p282
sV137.74.112.46
p283
VFGHRSDV
p284
sV137.74.116.214
p285
VFGHRSDV
p286
sV137.74.117.52
p287
VFGHRSDV
p288
sV137.74.169.241
p289
VEFGHRSDV
p290
sV137.74.198.250
p291
VFGHRSDV
p292
sV137.74.25.175
p293
VFGHRSDV
p294
sV137.74.40.76
p295
VFGHRSDV
p296
sV138.197.152.227
p297
VFGHRSDV
p298
sV138.197.189.226
p299
VEFGHRSDV
p300
sV138.197.202.35
p301
VFGRSDV
p302
sV138.201.143.186
p303
VFGRSDV
p304
sV138.201.169.12
p305
VFGHRSDV
p306
sV138.201.245.87
p307
VFGHRSDV
p308
sV138.201.249.231
p309
VFGHRSDV
p310
sV138.201.250.33
p311
VFGHRSDV
p312
sV138.201.3.75
p313
VFGHRSDV
p314
sV138.201.83.171
p315
VFGHRSDV
p316
sV138.68.15.203
p317
VFGHRSDV
p318
sV138.68.253.48
p319
VFGHRSDV
p320
sV138.68.43.215
p321
VFGHRSDV
p322
sV139.162.96.82
p323
VFGHRSDV
p324
sV139.30.255.201
p325
VFGHRSDV
p326
sV139.99.96.114
p327
VEFGHRSDV
p328
sV139.99.98.191
p329
VEFGHRSDV
p330
sV141.105.67.58
p331
VFGRSDV
p332
sV141.20.103.25
p333
VFGHRSDV
p334
sV141.20.33.67
p335
VFGHRSDV
p336
sV141.20.33.68
p337
VFGHRSDV
p338
sV141.255.161.166
p339
VFGRSDV
p340
sV141.255.161.167
p341
VFGRSDV
p342
sV141.255.162.34
p343
VEFGHRSDV
p344
sV141.255.162.35
p345
VEFGHRSDV
p346
sV141.255.162.36
p347
VEFGHRSDV
p348
sV141.255.162.38
p349
VEFGHRSDV
p350
sV141.255.165.102
p351
VFGRSDV
p352
sV141.255.166.142
p353
VFGRSDV
p354
sV141.255.166.150
p355
VFGRSDV
p356
sV141.255.166.189
p357
VFGRSDV
p358
sV141.28.104.223
p359
VFGHRSDV
p360
sV141.51.125.16
p361
VFGHRSDV
p362
sV142.4.211.189
p363
VFGHRSDV
p364
sV142.44.243.133
p365
VFGHRSDV
p366
sV142.93.240.161
p367
VFGHRSDV
p368
sV144.208.76.171
p369
VFGHRSDV
p370
sV144.217.15.164
p371
VFGHRSDV
p372
sV144.217.164.104
p373
VFGRSDVX
p374
sV144.217.254.208
p375
VFGHRSDV
p376
sV144.217.56.145
p377
VEFGHRSDV
p378
sV144.217.60.211
p379
VEFGRSDV
p380
sV144.217.60.239
p381
VEFGRSDV
p382
sV144.217.7.136
p383
VFGRSDV
p384
sV144.217.80.80
p385
VEFGHRSDV
p386
sV144.217.85.34
p387
VFGHRSDV
p388
sV144.217.92.215
p389
VFGHRSDV
p390
sV144.217.95.12
p391
VFGHRSDV
p392
sV144.48.63.88
p393
VFGRSDV
p394
sV144.76.14.145
p395
VFGHRSDV
p396
sV144.76.165.201
p397
VFGHRSDV
p398
sV144.76.168.36
p399
VFGHRSDV
p400
sV144.76.24.130
p401
VFGHRSDV
p402
sV144.76.253.229
p403
VFGRSDV
p404
sV144.76.37.242
p405
VFGHRSDV
p406
sV144.76.50.37
p407
VFGHRSDV
p408
sV144.76.75.137
p409
VFGHRSDV
p410
sV144.76.96.6
p411
VFGHRSDV
p412
sV144.76.96.7
p413
VFGHRSDV
p414
sV145.220.0.15
p415
VFGRSDV
p416
sV145.239.229.118
p417
VFGHRSDVX
p418
sV145.239.239.28
p419
VFGRSDV
p420
sV145.239.72.73
p421
VFGHRSDV
p422
sV145.239.76.11
p423
VFGHRSDV
p424
sV145.239.82.204
p425
VFGRSDVX
p426
sV145.239.86.35
p427
VFGHRSDV
p428
sV145.239.87.205
p429
VFGHRSDV
p430
sV145.239.89.186
p431
VFGHRSDV
p432
sV145.239.90.27
p433
VEFGHRSDV
p434
sV145.239.91.37
p435
VEFGHRSDV
p436
sV145.239.94.162
p437
VFGHRSDV
p438
sV146.0.42.41
p439
VFGHRSDVX
p440
sV146.0.77.50
p441
VFGRSDV
p442
sV146.185.189.197
p443
VFGRSDV
p444
sV146.185.253.101
p445
VFGRSDV
p446
sV146.185.253.122
p447
VEFGHRSDV
p448
sV147.175.187.143
p449
VFGHRSDV
p450
sV147.175.187.180
p451
VFGHRSDV
p452
sV147.92.88.67
p453
VFGHRSDV
p454
sV148.251.127.89
p455
VFGHRSDV
p456
sV148.251.190.229
p457
VFGHRSDV
p458
sV148.251.214.53
p459
VFGRSDV
p460
sV148.251.221.163
p461
VFGHRSDV
p462
sV148.76.1.7
p463
VFGRSDV
p464
sV149.202.170.60
p465
VEFGHRSDV
p466
sV149.202.190.14
p467
VFGHRSDV
p468
sV149.202.238.204
p469
VEFGRSDV
p470
sV149.202.51.52
p471
VFGHRSDV
p472
sV149.255.36.148
p473
VFGHRSDV
p474
sV149.28.230.207
p475
VFGHRSDV
p476
sV149.28.241.198
p477
VFGHRSDV
p478
sV149.36.64.8
p479
VEFGHRSDV
p480
sV149.56.141.138
p481
VFGRSDV
p482
sV149.56.141.15
p483
VFGHRSDV
p484
sV149.56.157.119
p485
VFGHRSDV
p486
sV149.56.185.56
p487
VFGHRSDV
p488
sV149.56.233.142
p489
VFGHRSDV
p490
sV149.56.25.84
p491
VFGHRSDV
p492
sV149.56.98.216
p493
VFGHRSDV
p494
sV150.95.173.81
p495
VFGHRSDV
p496
sV151.80.115.180
p497
VFGHRSDV
p498
sV153.92.126.234
p499
VFGRSDV
p500
sV153.92.127.239
p501
VFGRSDV
p502
sV154.46.204.30
p503
VFGHRSDV
p504
sV154.59.112.46
p505
VFGHRSDV
p506
sV154.59.112.69
p507
VFGHRSDV
p508
sV154.59.112.72
p509
VFGRSDV
p510
sV155.254.35.60
p511
VFGHRSDV
p512
sV155.94.152.76
p513
VFGHRSDV
p514
sV155.98.5.5
p515
VFGHRSDV
p516
sV155.98.5.6
p517
VFGHRSDV
p518
sV157.22.22.254
p519
VFGRSDV
p520
sV158.150.113.100
p521
VFGHRSDV
p522
sV158.174.14.94
p523
VFGHRSDV
p524
sV158.255.1.112
p525
VFGHRSDV
p526
sV158.255.7.61
p527
VFGRSDVX
p528
sV158.58.170.183
p529
VFGHRSDV
p530
sV158.58.173.78
p531
VFGRSDV
p532
sV158.69.119.35
p533
VFGHRSDV
p534
sV158.69.192.200
p535
VEFGRSDV
p536
sV158.69.192.239
p537
VEFGRSDV
p538
sV158.69.193.32
p539
VEFGRSDV
p540
sV158.69.201.47
p541
VEFGRSDV
p542
sV158.69.204.36
p543
VFGHRSDV
p544
sV158.69.205.247
p545
VFGHRSDV
p546
sV158.69.205.92
p547
VFGHRSDV
p548
sV158.69.207.216
p549
VFGRSDV
p550
sV158.69.222.218
p551
VFGHRSDV
p552
sV158.69.247.184
p553
VFGHRSDV
p554
sV158.69.30.132
p555
VFGRSDV
p556
sV158.69.30.133
p557
VFGRSDV
p558
sV158.69.37.14
p559
VEFGHRSDV
p560
sV158.69.63.54
p561
VFGRSDV
p562
sV158.69.92.127
p563
VFGHRSDV
p564
sV159.203.38.250
p565
VFGHRSDV
p566
sV159.65.206.59
p567
VFGHRSDV
p568
sV159.65.21.174
p569
VFGHRSDV
p570
sV159.65.232.238
p571
VFGHRSDV
p572
sV159.65.33.159
p573
VFGHRSDV
p574
sV159.69.114.110
p575
VFGHRSDV
p576
sV159.69.36.3
p577
VFGRSDV
p578
sV159.69.5.43
p579
VFGHRSDV
p580
sV159.89.140.103
p581
VFGHRSDV
p582
sV160.16.93.204
p583
VFGHRSDV
p584
sV161.53.160.104
p585
VFGHRSDV
p586
sV161.97.195.50
p587
VFGRSDV
p588
sV162.213.123.154
p589
VFGHRSDV
p590
sV162.213.3.221
p591
VEFGHRSDV
p592
sV162.244.82.232
p593
VFGHRSDV
p594
sV162.247.74.199
p595
VEFGRSDV
p596
sV162.247.74.200
p597
VEFGHRSDV
p598
sV162.247.74.201
p599
VEFGHRSDV
p600
sV162.247.74.202
p601
VEFGHRSDV
p602
sV162.247.74.204
p603
VEFGHRSDV
p604
sV162.247.74.206
p605
VEFGHRSDV
p606
sV162.247.74.213
p607
VEFGHRSDV
p608
sV162.247.74.216
p609
VEFGHRSDV
p610
sV162.247.74.217
p611
VEFGHRSDV
p612
sV162.247.74.27
p613
VEFGHRSDV
p614
sV162.247.74.7
p615
VEFGHRSDV
p616
sV162.247.74.74
p617
VEFGHRSDV
p618
sV162.247.75.118
p619
VFGHRSDV
p620
sV162.255.84.248
p621
VFGHRSDV
p622
sV163.172.11.137
p623
VFGHRSDV
p624
sV163.172.13.165
p625
VFGRSDV
p626
sV163.172.131.88
p627
VFGRSDV
p628
sV163.172.132.199
p629
VEFGHRSDV
p630
sV163.172.133.54
p631
VFGHRSDV
p632
sV163.172.138.22
p633
VFGRSDV
p634
sV163.172.139.104
p635
VFGHRSDV
p636
sV163.172.141.10
p637
VFGHRSDV
p638
sV163.172.142.217
p639
VFGHRSDV
p640
sV163.172.142.92
p641
VFGHRSDV
p642
sV163.172.146.169
p643
VFGHRSDV
p644
sV163.172.146.92
p645
VFGHRSDV
p646
sV163.172.147.53
p647
VFGHRSDV
p648
sV163.172.149.155
p649
VFGHRSDV
p650
sV163.172.149.243
p651
VFGHRSDV
p652
sV163.172.152.231
p653
VFGHRSDV
p654
sV163.172.152.237
p655
VFGHRSDV
p656
sV163.172.154.162
p657
VFGRSDV
p658
sV163.172.157.124
p659
VFGHRSDV
p660
sV163.172.157.213
p661
VFGHRSDV
p662
sV163.172.161.131
p663
VFGHRSDV
p664
sV163.172.167.241
p665
VFGHRSDV
p666
sV163.172.169.253
p667
VFGHRSDV
p668
sV163.172.170.52
p669
VFGRSDV
p670
sV163.172.171.163
p671
VFGRSDV
p672
sV163.172.173.184
p673
VFGHRSDV
p674
sV163.172.174.142
p675
VFGHRSDV
p676
sV163.172.174.24
p677
VEFGRSDV
p678
sV163.172.175.174
p679
VFGHRSDV
p680
sV163.172.176.167
p681
VFGHRSDV
p682
sV163.172.176.21
p683
VFGHRSDV
p684
sV163.172.180.104
p685
VFGHRSDV
p686
sV163.172.180.59
p687
VFGHRSDV
p688
sV163.172.183.116
p689
VFGHRSDV
p690
sV163.172.196.79
p691
VFGHRSDV
p692
sV163.172.209.161
p693
VFGHRSDV
p694
sV163.172.21.117
p695
VFGHRSDV
p696
sV163.172.210.167
p697
VFGHRSDV
p698
sV163.172.213.201
p699
VFGHRSDV
p700
sV163.172.214.60
p701
VFGHRSDV
p702
sV163.172.216.195
p703
VFGHRSDV
p704
sV163.172.218.10
p705
VFGHRSDV
p706
sV163.172.227.11
p707
VFGHRSDV
p708
sV163.172.25.118
p709
VFGHRSDV
p710
sV163.172.27.62
p711
VFGHRSDV
p712
sV163.172.41.228
p713
VEFGHRSDV
p714
sV163.172.42.239
p715
VFGHRSDV
p716
sV163.172.43.101
p717
VFGHRSDV
p718
sV163.172.51.111
p719
VFGHRSDV
p720
sV163.172.53.84
p721
VFGHRSDV
p722
sV163.172.56.248
p723
VFGHRSDV
p724
sV163.172.69.166
p725
VFGHRSDV
p726
sV163.172.82.3
p727
VFGHRSDV
p728
sV163.172.90.128
p729
VFGHRSDV
p730
sV163.172.90.26
p731
VFGHRSDV
p732
sV163.172.94.119
p733
VFGHRSDV
p734
sV164.132.106.162
p735
VEFGHRSDV
p736
sV164.132.209.131
p737
VFGHRSDV
p738
sV164.132.226.30
p739
VFGHRSDV
p740
sV164.132.51.91
p741
VEFGHRSDV
p742
sV164.132.97.113
p743
VFGHRSDV
p744
sV164.40.245.204
p745
VFGHRSDV
p746
sV166.70.170.234
p747
VFGHRSDV
p748
sV166.70.207.2
p749
VEFGHRSDV
p750
sV167.114.113.134
p751
VFGHRSDV
p752
sV167.114.144.152
p753
VFGHRSDV
p754
sV167.114.155.99
p755
VEFGHRSDV
p756
sV167.114.160.128
p757
VFGHRSDV
p758
sV167.114.219.61
p759
VFGHRSDV
p760
sV167.114.35.102
p761
VFGHRSDV
p762
sV167.114.35.107
p763
VFGHRSDV
p764
sV167.114.67.4
p765
VFGHRSDV
p766
sV167.114.76.195
p767
VFGHRSDV
p768
sV167.114.96.9
p769
VFGHRSDV
p770
sV167.99.42.89
p771
VEFGHRSDV
p772
sV168.235.144.19
p773
VFGHRSDV
p774
sV171.25.193.20
p775
VEFGHRSDV
p776
sV171.25.193.235
p777
VEFGHRSDV
p778
sV171.25.193.25
p779
VEFGHRSDV
p780
sV171.25.193.77
p781
VEFGHRSDV
p782
sV171.25.193.78
p783
VEFGHRSDV
p784
sV172.103.94.91
p785
VEFGHRSDV
p786
sV172.104.208.190
p787
VFGHRSDV
p788
sV172.104.217.205
p789
VFGHRSDV
p790
sV172.241.140.26
p791
VFGRSDV
p792
sV172.83.127.151
p793
VFGHRSDV
p794
sV172.86.144.15
p795
VFGHRSDV
p796
sV172.86.145.9
p797
VFGRSDV
p798
sV172.86.148.10
p799
VFGRSDV
p800
sV172.92.156.109
p801
VFGHRSDV
p802
sV172.98.193.43
p803
VEFGHRSDV
p804
sV172.98.77.212
p805
VFGHRSDV
p806
sV173.2.35.202
p807
VFGHRSDV
p808
sV173.208.129.114
p809
VFGHRSDV
p810
sV173.208.225.13
p811
VFGHRSDV
p812
sV173.212.197.112
p813
VFGHRSDV
p814
sV173.212.233.139
p815
VFGRSDV
p816
sV173.212.244.108
p817
VFGHRSDV
p818
sV173.212.254.192
p819
VFGHRSDV
p820
sV173.213.108.116
p821
VFGHRSDV
p822
sV173.249.21.80
p823
VFGHRSDV
p824
sV173.249.25.217
p825
VFGHRSDV
p826
sV173.249.36.89
p827
VFGRSDV
p828
sV173.249.39.62
p829
VFGHRSDV
p830
sV173.249.44.27
p831
VFGHRSDV
p832
sV173.249.48.200
p833
VFGRSDV
p834
sV173.249.48.78
p835
VEFGHRSDV
p836
sV173.249.57.253
p837
VEFGHRSDV
p838
sV173.255.228.85
p839
VFGHRSDV
p840
sV173.48.205.40
p841
VFGHRSDV
p842
sV173.71.141.165
p843
VFGRSDV
p844
sV174.127.217.73
p845
VFGRSDV
p846
sV174.138.18.84
p847
VFGRSDV
p848
sV174.141.200.41
p849
VFGHRSDV
p850
sV176.10.104.240
p851
VEFGRSDV
p852
sV176.10.131.70
p853
VFGRSDV
p854
sV176.10.137.89
p855
VFGHRSDV
p856
sV176.10.140.175
p857
VFGHRSDV
p858
sV176.10.99.196
p859
VFGHRSDV
p860
sV176.10.99.200
p861
VEFGHRSDV
p862
sV176.10.99.201
p863
VEFGHRSDV
p864
sV176.10.99.202
p865
VEFGHRSDV
p866
sV176.10.99.203
p867
VEFGHRSDV
p868
sV176.10.99.204
p869
VEFGHRSDV
p870
sV176.10.99.205
p871
VEFGHRSDV
p872
sV176.10.99.206
p873
VEFGHRSDV
p874
sV176.10.99.207
p875
VEFGHRSDV
p876
sV176.10.99.208
p877
VEFGHRSDV
p878
sV176.10.99.209
p879
VEFGHRSDV
p880
sV176.10.99.210
p881
VEFGHRSDV
p882
sV176.104.107.53
p883
VFGHRSDV
p884
sV176.119.28.57
p885
VEFGHRSDV
p886
sV176.12.22.92
p887
VFGHRSDV
p888
sV176.123.26.58
p889
VFGHRSDV
p890
sV176.123.29.56
p891
VFGRSDV
p892
sV176.123.7.197
p893
VFGRSDV
p894
sV176.126.242.49
p895
VFGRSDV
p896
sV176.126.252.11
p897
VEFGHRSDV
p898
sV176.126.252.12
p899
VEFGHRSDV
p900
sV176.158.236.102
p901
VFGHRSDV
p902
sV176.165.28.165
p903
VFGHRSDV
p904
sV176.193.113.234
p905
VFGHRSDV
p906
sV176.198.42.215
p907
VFGHRSDV
p908
sV176.31.103.150
p909
VFGHRSDV
p910
sV176.31.163.89
p911
VFGHRSDV
p912
sV176.31.180.157
p913
VEFGHRSDV
p914
sV176.31.208.193
p915
VEFGHRSDV
p916
sV176.31.26.128
p917
VFGHRSDV
p918
sV176.31.35.149
p919
VFGHRSDV
p920
sV176.31.43.51
p921
VFGRSDV
p922
sV176.31.45.3
p923
VEFGRSDV
p924
sV176.32.33.221
p925
VFGHRSDV
p926
sV176.36.117.185
p927
VFGRSDV
p928
sV176.46.239.67
p929
VFGHRSDV
p930
sV176.53.22.142
p931
VFGRSDV
p932
sV176.53.90.26
p933
VEFGRSDV
p934
sV176.67.168.210
p935
VFGRSDVX
p936
sV176.67.169.254
p937
VFGRSDV
p938
sV176.86.5.130
p939
VFGHRSDV
p940
sV176.9.154.247
p941
VFGHRSDV
p942
sV176.9.156.136
p943
VFGHRSDV
p944
sV176.9.208.12
p945
VFGHRSDV
p946
sV176.9.35.88
p947
VFGHRSDV
p948
sV176.9.38.38
p949
VFGHRSDV
p950
sV176.9.39.218
p951
VFGHRSDV
p952
sV176.9.44.232
p953
VFGHRSDV
p954
sV176.9.46.72
p955
VFGHRSDV
p956
sV176.9.54.3
p957
VFGHRSDV
p958
sV176.95.26.213
p959
VFGHRSDV
p960
sV177.234.1.58
p961
VFGHRSDV
p962
sV178.128.12.250
p963
VFGHRSDV
p964
sV178.128.14.148
p965
VFGHRSDV
p966
sV178.128.14.154
p967
VFGHRSDV
p968
sV178.128.177.175
p969
VFGHRSDV
p970
sV178.128.183.206
p971
VFGHRSDV
p972
sV178.128.190.53
p973
VFGHRSDV
p974
sV178.128.190.7
p975
VFGHRSDV
p976
sV178.128.2.177
p977
VFGHRSDV
p978
sV178.128.6.182
p979
VFGHRSDV
p980
sV178.132.0.6
p981
VFGHRSDV
p982
sV178.132.78.148
p983
VFGHRSDV
p984
sV178.140.196.246
p985
VFGHRSDV
p986
sV178.140.234.69
p987
VFGHRSDV
p988
sV178.150.100.55
p989
VFGHRSDV
p990
sV178.156.202.21
p991
VFGRSDV
p992
sV178.159.0.38
p993
VFGHRSDV
p994
sV178.162.194.210
p995
VFGHRSDV
p996
sV178.165.72.177
p997
VEFGHRSDV
p998
sV178.17.166.146
p999
VEFGHRSDV
p1000
sV178.17.166.147
p1001
VEFGHRSDV
p1002
sV178.17.166.148
p1003
VEFGHRSDV
p1004
sV178.17.166.149
p1005
VEFGHRSDV
p1006
sV178.17.170.135
p1007
VEFGHRSDV
p1008
sV178.17.170.149
p1009
VFGRSDVX
p1010
sV178.17.170.156
p1011
VEFGHRSDV
p1012
sV178.17.170.164
p1013
VEFGRSDV
p1014
sV178.17.170.194
p1015
VEFGHRSDV
p1016
sV178.17.170.196
p1017
VEFGHRSDV
p1018
sV178.17.170.77
p1019
VFGRSDV
p1020
sV178.17.171.114
p1021
VEFGHRSDV
p1022
sV178.17.171.214
p1023
VEFGHRSDV
p1024
sV178.17.171.49
p1025
VFGHRSDV
p1026
sV178.17.174.10
p1027
VEFGRSDV
p1028
sV178.17.174.14
p1029
VEFGHRSDV
p1030
sV178.17.174.196
p1031
VEFGHRSDV
p1032
sV178.17.174.198
p1033
VEFGHRSDV
p1034
sV178.17.174.2
p1035
VFGHRSDV
p1036
sV178.17.174.232
p1037
VEFGHRSDV
p1038
sV178.17.174.68
p1039
VFGHRSDV
p1040
sV178.175.129.90
p1041
VEFGHRSDV
p1042
sV178.175.131.194
p1043
VEFGRSDV
p1044
sV178.175.135.100
p1045
VEFGHRSDV
p1046
sV178.175.135.101
p1047
VEFGHRSDV
p1048
sV178.175.135.102
p1049
VEFGHRSDV
p1050
sV178.175.135.99
p1051
VEFGHRSDV
p1052
sV178.175.139.122
p1053
VEFGRSDV
p1054
sV178.175.148.11
p1055
VFGRSDV
p1056
sV178.175.148.212
p1057
VFGHRSDV
p1058
sV178.175.148.224
p1059
VEFGHRSDV
p1060
sV178.18.122.109
p1061
VFGHRSDV
p1062
sV178.20.55.16
p1063
VEFGRSDV
p1064
sV178.20.55.18
p1065
VEFGRSDV
p1066
sV178.21.23.90
p1067
VFGHRSDV
p1068
sV178.217.184.32
p1069
VFGHRSDV
p1070
sV178.238.224.97
p1071
VFGHRSDV
p1072
sV178.238.225.9
p1073
VFGHRSDV
p1074
sV178.238.227.150
p1075
VFGHRSDV
p1076
sV178.239.176.73
p1077
VEFGRSDV
p1078
sV178.249.167.209
p1079
VFGRSDV
p1080
sV178.254.19.101
p1081
VFGHRSDV
p1082
sV178.254.19.112
p1083
VFGHRSDV
p1084
sV178.254.35.99
p1085
VFGHRSDV
p1086
sV178.32.147.150
p1087
VEFGRSDV
p1088
sV178.32.181.96
p1089
VEFGRSDV
p1090
sV178.32.181.97
p1091
VEFGHRSDV
p1092
sV178.32.181.98
p1093
VEFGRSDV
p1094
sV178.32.181.99
p1095
VEFGHRSDV
p1096
sV178.32.185.102
p1097
VEFGRSDV
p1098
sV178.32.185.97
p1099
VEFGRSDV
p1100
sV178.32.189.88
p1101
VFGRSDV
p1102
sV178.32.217.68
p1103
VFGRSDV
p1104
sV178.32.220.61
p1105
VFGHRSDV
p1106
sV178.32.221.207
p1107
VFGHRSDV
p1108
sV178.32.222.125
p1109
VFGHRSDV
p1110
sV178.32.222.185
p1111
VFGHRSDV
p1112
sV178.32.47.140
p1113
VFGHRSDV
p1114
sV178.33.183.251
p1115
VFGHRSDV
p1116
sV178.49.253.215
p1117
VFGRSDV
p1118
sV178.62.112.71
p1119
VFGHRSDV
p1120
sV178.62.252.82
p1121
VFGRSDV
p1122
sV178.62.66.18
p1123
VFGRSDV
p1124
sV178.62.86.206
p1125
VFGRSDV
p1126
sV178.63.138.17
p1127
VFGHRSDV
p1128
sV178.63.18.25
p1129
VFGHRSDV
p1130
sV178.63.25.10
p1131
VFGHRSDV
p1132
sV178.63.60.254
p1133
VFGRSDV
p1134
sV178.63.69.254
p1135
VFGHRSDV
p1136
sV178.63.9.165
p1137
VFGRSDV
p1138
sV178.63.97.34
p1139
VFGHRSDVX
p1140
sV178.78.213.214
p1141
VFGRSDV
p1142
sV178.79.161.177
p1143
VFGHRSDV
p1144
sV178.79.165.21
p1145
VFGHRSDV
p1146
sV178.83.105.197
p1147
VFGHRSDV
p1148
sV178.83.9.211
p1149
VFGRSDV
p1150
sV179.43.146.230
p1151
VFGRSDVX
p1152
sV179.43.158.176
p1153
VFGRSDV
p1154
sV179.43.168.166
p1155
VFGRSDV
p1156
sV179.43.169.14
p1157
VFGHRSDV
p1158
sV179.43.169.21
p1159
VFGRSDV
p1160
sV18.18.248.17
p1161
VEFGHRSDV
p1162
sV18.82.1.29
p1163
VFGRSDV
p1164
sV18.82.3.136
p1165
VFGRSDV
p1166
sV18.82.3.196
p1167
VFGRSDV
p1168
sV18.85.22.239
p1169
VEFGRSDV
p1170
sV185.10.68.93
p1171
VEFGHRSDV
p1172
sV185.100.84.212
p1173
VFGHRSDV
p1174
sV185.100.84.251
p1175
VFGRSDV
p1176
sV185.100.85.132
p1177
VFGRSDVX
p1178
sV185.100.85.175
p1179
VFGHRSDV
p1180
sV185.100.85.190
p1181
VEFGHRSDV
p1182
sV185.100.85.191
p1183
VEFGHRSDV
p1184
sV185.100.85.207
p1185
VFGHRSDV
p1186
sV185.100.85.61
p1187
VEFGHRSDV
p1188
sV185.100.86.100
p1189
VEFGRSDV
p1190
sV185.100.86.128
p1191
VEFGHRSDV
p1192
sV185.100.86.154
p1193
VEFGRSDV
p1194
sV185.100.86.182
p1195
VEFGHRSDV
p1196
sV185.100.86.249
p1197
VFGRSDV
p1198
sV185.100.87.206
p1199
VEFGHRSDV
p1200
sV185.100.87.207
p1201
VEFGHRSDV
p1202
sV185.101.107.212
p1203
VFGRSDV
p1204
sV185.101.98.108
p1205
VFGRSDV
p1206
sV185.103.110.144
p1207
VFGHRSDV
p1208
sV185.103.110.248
p1209
VFGRSDV
p1210
sV185.103.135.19
p1211
VFGHRSDV
p1212
sV185.104.120.3
p1213
VEFGHRSDV
p1214
sV185.104.120.4
p1215
VEFGHRSDV
p1216
sV185.104.120.5
p1217
VEFGHRSDV
p1218
sV185.104.120.60
p1219
VEFGHRSDV
p1220
sV185.104.120.7
p1221
VEFGHRSDV
p1222
sV185.106.122.188
p1223
VFGRSDVX
p1224
sV185.106.154.118
p1225
VFGRSDV
p1226
sV185.106.154.119
p1227
VFGRSDV
p1228
sV185.107.81.194
p1229
VFGRSDV
p1230
sV185.107.83.71
p1231
VFGHRSDV
p1232
sV185.107.94.233
p1233
VEFGHRSDV
p1234
sV185.112.157.135
p1235
VFGHRSDV
p1236
sV185.112.82.50
p1237
VFGRSDV
p1238
sV185.117.118.221
p1239
VFGRSDV
p1240
sV185.117.119.229
p1241
VFGHRSDV
p1242
sV185.117.215.9
p1243
VEFGHRSDV
p1244
sV185.117.82.23
p1245
VFGHRSDV
p1246
sV185.117.82.68
p1247
VFGHRSDV
p1248
sV185.119.98.205
p1249
VFGHRSDV
p1250
sV185.12.6.234
p1251
VFGRSDV
p1252
sV185.125.217.66
p1253
VFGHRSDV
p1254
sV185.125.33.114
p1255
VEFGRSDV
p1256
sV185.125.33.58
p1257
VFGRSDV
p1258
sV185.129.60.131
p1259
VFGHRSDV
p1260
sV185.129.62.62
p1261
VEFGHRSDV
p1262
sV185.129.62.63
p1263
VEFGHRSDV
p1264
sV185.13.39.197
p1265
VFGRSDV
p1266
sV185.14.30.57
p1267
VFGHRSDV
p1268
sV185.141.63.103
p1269
VFGRSDV
p1270
sV185.147.237.8
p1271
VEFGHRSDV
p1272
sV185.15.72.62
p1273
VFGHRSDV
p1274
sV185.15.73.117
p1275
VFGHRSDV
p1276
sV185.156.173.148
p1277
VFGRSDV
p1278
sV185.158.248.65
p1279
VFGRSDV
p1280
sV185.163.45.212
p1281
VFGRSDV
p1282
sV185.163.45.247
p1283
VFGRSDV
p1284
sV185.163.45.253
p1285
VFGRSDV
p1286
sV185.163.45.29
p1287
VFGRSDV
p1288
sV185.163.45.91
p1289
VFGRSDV
p1290
sV185.165.168.168
p1291
VEFGHRSDV
p1292
sV185.165.168.229
p1293
VEFGHRSDV
p1294
sV185.165.168.49
p1295
VFGHRSDV
p1296
sV185.169.42.23
p1297
VEFGHRSDV
p1298
sV185.171.130.240
p1299
VFGHRSDV
p1300
sV185.181.229.77
p1301
VFGHRSDV
p1302
sV185.188.183.161
p1303
VFGHRSDV
p1304
sV185.189.112.162
p1305
VFGRSDV
p1306
sV185.191.204.254
p1307
VFGRSDVX
p1308
sV185.193.125.115
p1309
VEFGRSDV
p1310
sV185.193.125.84
p1311
VEFGHRSDV
p1312
sV185.198.26.149
p1313
VFGHRSDV
p1314
sV185.2.43.84
p1315
VFGHRSDV
p1316
sV185.2.43.87
p1317
VFGRSDV
p1318
sV185.200.123.1
p1319
VEFGHRSDV
p1320
sV185.200.123.10
p1321
VEFGHRSDV
p1322
sV185.200.123.11
p1323
VEFGHRSDV
p1324
sV185.200.123.12
p1325
VEFGHRSDV
p1326
sV185.200.123.13
p1327
VEFGHRSDV
p1328
sV185.200.123.14
p1329
VEFGHRSDV
p1330
sV185.200.123.15
p1331
VEFGHRSDV
p1332
sV185.200.123.16
p1333
VEFGHRSDV
p1334
sV185.200.123.17
p1335
VEFGHRSDV
p1336
sV185.200.123.18
p1337
VEFGHRSDV
p1338
sV185.200.123.19
p1339
VEFGHRSDV
p1340
sV185.200.123.2
p1341
VEFGHRSDV
p1342
sV185.200.123.20
p1343
VEFGHRSDV
p1344
sV185.200.123.3
p1345
VEFGHRSDV
p1346
sV185.200.123.4
p1347
VEFGHRSDV
p1348
sV185.200.123.5
p1349
VEFGHRSDV
p1350
sV185.200.123.6
p1351
VEFGHRSDV
p1352
sV185.200.123.7
p1353
VEFGHRSDV
p1354
sV185.200.123.8
p1355
VEFGHRSDV
p1356
sV185.200.123.9
p1357
VEFGHRSDV
p1358
sV185.204.1.239
p1359
VFGHRSDV
p1360
sV185.206.209.133
p1361
VFGRSDV
p1362
sV185.207.107.39
p1363
VFGRSDV
p1364
sV185.21.100.50
p1365
VFGRSDV
p1366
sV185.21.216.195
p1367
VFGHRSDV
p1368
sV185.212.149.111
p1369
VFGHRSDV
p1370
sV185.212.149.125
p1371
VFGHRSDV
p1372
sV185.212.149.141
p1373
VFGRSDV
p1374
sV185.217.0.85
p1375
VFGHRSDV
p1376
sV185.217.0.96
p1377
VFGRSDV
p1378
sV185.22.153.24
p1379
VFGHRSDV
p1380
sV185.22.172.237
p1381
VFGHRSDV
p1382
sV185.22.172.239
p1383
VFGHRSDV
p1384
sV185.22.174.119
p1385
VFGRSDV
p1386
sV185.22.174.221
p1387
VFGHRSDV
p1388
sV185.22.174.46
p1389
VFGHRSDV
p1390
sV185.220.100.252
p1391
VEFGRSDV
p1392
sV185.220.100.253
p1393
VEFGRSDV
p1394
sV185.220.101.0
p1395
VEFGHRSDV
p1396
sV185.220.101.1
p1397
VEFGHRSDV
p1398
sV185.220.101.10
p1399
VEFGHRSDV
p1400
sV185.220.101.12
p1401
VEFGHRSDV
p1402
sV185.220.101.13
p1403
VEFGHRSDV
p1404
sV185.220.101.15
p1405
VEFGHRSDV
p1406
sV185.220.101.20
p1407
VEFGHRSDV
p1408
sV185.220.101.21
p1409
VEFGHRSDV
p1410
sV185.220.101.22
p1411
VEFGHRSDV
p1412
sV185.220.101.25
p1413
VEFGHRSDV
p1414
sV185.220.101.27
p1415
VEFGHRSDV
p1416
sV185.220.101.28
p1417
VEFGHRSDV
p1418
sV185.220.101.29
p1419
VEFGHRSDV
p1420
sV185.220.101.3
p1421
VEFGHRSDV
p1422
sV185.220.101.30
p1423
VEFGHRSDV
p1424
sV185.220.101.32
p1425
VEFGHRSDV
p1426
sV185.220.101.33
p1427
VEFGHRSDV
p1428
sV185.220.101.34
p1429
VEFGHRSDV
p1430
sV185.220.101.44
p1431
VEFGHRSDV
p1432
sV185.220.101.45
p1433
VEFGHRSDV
p1434
sV185.220.101.5
p1435
VEFGHRSDV
p1436
sV185.220.101.6
p1437
VEFGHRSDV
p1438
sV185.220.101.7
p1439
VEFGHRSDV
p1440
sV185.220.101.8
p1441
VEFGHRSDV
p1442
sV185.220.101.9
p1443
VEFGHRSDV
p1444
sV185.221.172.60
p1445
VFGHRSDV
p1446
sV185.221.200.30
p1447
VFGHRSDV
p1448
sV185.222.202.10
p1449
VFGHRSDV
p1450
sV185.222.202.103
p1451
VFGHRSDV
p1452
sV185.222.202.107
p1453
VFGHRSDV
p1454
sV185.222.202.12
p1455
VEFGRSDV
p1456
sV185.222.202.125
p1457
VEFGHRSDV
p1458
sV185.225.17.106
p1459
VFGHRSDV
p1460
sV185.225.17.151
p1461
VFGHRSDV
p1462
sV185.225.17.60
p1463
VFGRSDV
p1464
sV185.225.17.72
p1465
VFGHRSDV
p1466
sV185.225.69.8
p1467
VFGRSDV
p1468
sV185.227.68.250
p1469
VEFGHRSDV
p1470
sV185.227.68.78
p1471
VEFGRSDV
p1472
sV185.227.71.38
p1473
VFGHRSDV
p1474
sV185.227.82.56
p1475
VFGRSDV
p1476
sV185.227.82.63
p1477
VFGRSDV
p1478
sV185.227.82.7
p1479
VFGRSDV
p1480
sV185.227.82.9
p1481
VEFGRSDV
p1482
sV185.233.104.172
p1483
VFGHRSDV
p1484
sV185.242.180.130
p1485
VFGRSDV
p1486
sV185.243.53.99
p1487
VFGRSDV
p1488
sV185.243.8.74
p1489
VFGHRSDV
p1490
sV185.243.9.150
p1491
VFGHRSDV
p1492
sV185.245.96.21
p1493
VFGRSDV
p1494
sV185.248.160.21
p1495
VEFGHRSDV
p1496
sV185.25.50.199
p1497
VFGHRSDV
p1498
sV185.25.51.202
p1499
VFGHRSDV
p1500
sV185.25.51.59
p1501
VFGHRSDV
p1502
sV185.31.136.244
p1503
VFGHRSDVX
p1504
sV185.32.221.201
p1505
VFGRSDV
p1506
sV185.34.33.2
p1507
VEFGHRSDV
p1508
sV185.35.202.222
p1509
VFGHRSDV
p1510
sV185.49.70.65
p1511
VFGHRSDV
p1512
sV185.50.191.250
p1513
VFGHRSDV
p1514
sV185.61.148.80
p1515
VFGRSDV
p1516
sV185.61.149.247
p1517
VFGHRSDV
p1518
sV185.61.149.67
p1519
VFGRSDV
p1520
sV185.62.57.162
p1521
VFGHRSDV
p1522
sV185.62.57.91
p1523
VEFGRSDV
p1524
sV185.63.253.130
p1525
VFGRSDV
p1526
sV185.65.205.10
p1527
VEFGHRSDV
p1528
sV185.72.244.24
p1529
VEFGRSDV
p1530
sV185.72.244.37
p1531
VFGHRSDV
p1532
sV185.72.247.145
p1533
VFGHRSDV
p1534
sV185.73.220.8
p1535
VFGRSDV
p1536
sV185.76.145.109
p1537
VFGRSDV
p1538
sV185.77.129.35
p1539
VFGRSDV
p1540
sV185.8.237.45
p1541
VFGHRSDV
p1542
sV185.8.238.139
p1543
VFGHRSDV
p1544
sV185.8.63.38
p1545
VFGRSDV
p1546
sV185.80.222.164
p1547
VFGRSDV
p1548
sV185.82.203.209
p1549
VFGHRSDV
p1550
sV185.82.218.174
p1551
VFGHRSDV
p1552
sV185.82.218.180
p1553
VFGHRSDV
p1554
sV185.83.215.29
p1555
VEFGRSDV
p1556
sV185.86.107.239
p1557
VFGHRSDV
p1558
sV185.86.148.90
p1559
VFGRSDVX
p1560
sV185.86.149.254
p1561
VFGRSDV
p1562
sV185.86.149.75
p1563
VFGRSDV
p1564
sV185.86.149.85
p1565
VFGRSDV
p1566
sV185.86.150.44
p1567
VFGHRSDV
p1568
sV185.86.150.58
p1569
VFGHRSDV
p1570
sV185.86.151.168
p1571
VFGRSDV
p1572
sV185.86.151.21
p1573
VFGRSDVX
p1574
sV185.86.151.231
p1575
VFGRSDV
p1576
sV185.94.252.60
p1577
VFGHRSDV
p1578
sV185.96.180.164
p1579
VFGHRSDV
p1580
sV185.96.180.29
p1581
VFGHRSDV
p1582
sV185.96.88.164
p1583
VFGHRSDV
p1584
sV185.96.88.29
p1585
VFGHRSDV
p1586
sV188.115.1.148
p1587
VFGRSDV
p1588
sV188.116.11.162
p1589
VFGRSDV
p1590
sV188.116.56.55
p1591
VFGRSDV
p1592
sV188.118.198.244
p1593
VFGRSDV
p1594
sV188.118.217.236
p1595
VFGHRSDV
p1596
sV188.119.151.108
p1597
VFGRSDV
p1598
sV188.120.231.245
p1599
VFGHRSDV
p1600
sV188.120.234.26
p1601
VFGRSDV
p1602
sV188.120.243.32
p1603
VFGHRSDV
p1604
sV188.138.102.98
p1605
VFGHRSDV
p1606
sV188.138.112.60
p1607
VFGHRSDV
p1608
sV188.138.33.149
p1609
VFGRSDV
p1610
sV188.138.33.233
p1611
VFGRSDV
p1612
sV188.138.88.42
p1613
VFGHRSDV
p1614
sV188.165.0.171
p1615
VFGRSDV
p1616
sV188.165.138.6
p1617
VFGHRSDV
p1618
sV188.165.139.175
p1619
VFGHRSDV
p1620
sV188.165.19.61
p1621
VFGHRSDV
p1622
sV188.165.212.152
p1623
VFGHRSDV
p1624
sV188.165.213.156
p1625
VFGHRSDV
p1626
sV188.165.220.21
p1627
VFGRSDV
p1628
sV188.165.28.152
p1629
VFGHRSDV
p1630
sV188.165.5.14
p1631
VFGHRSDV
p1632
sV188.166.184.185
p1633
VEFGHRSDV
p1634
sV188.166.255.192
p1635
VFGHRSDV
p1636
sV188.166.5.218
p1637
VFGHRSDV
p1638
sV188.168.34.90
p1639
VFGRSDV
p1640
sV188.209.49.203
p1641
VFGRSDV
p1642
sV188.213.170.104
p1643
VFGHRSDV
p1644
sV188.213.49.189
p1645
VFGHRSDV
p1646
sV188.213.49.55
p1647
VFGHRSDV
p1648
sV188.214.104.146
p1649
VEFGRSDV
p1650
sV188.214.129.21
p1651
VFGRSDV
p1652
sV188.235.23.130
p1653
VFGRSDV
p1654
sV188.241.58.10
p1655
VFGHRSDV
p1656
sV188.244.43.25
p1657
VFGHRSDV
p1658
sV188.26.86.27
p1659
VFGRSDV
p1660
sV188.32.254.164
p1661
VFGHRSDV
p1662
sV188.40.128.246
p1663
VFGHRSDV
p1664
sV188.40.41.115
p1665
VFGHRSDV
p1666
sV188.40.51.232
p1667
VFGRSDV
p1668
sV188.68.39.83
p1669
VFGHRSDV
p1670
sV188.68.45.180
p1671
VFGHRSDVX
p1672
sV188.68.46.164
p1673
VFGHRSDV
p1674
sV188.93.211.109
p1675
VFGHRSDV
p1676
sV188.94.33.129
p1677
VFGRSDV
p1678
sV190.10.8.166
p1679
VFGRSDV
p1680
sV190.2.149.62
p1681
VFGHRSDV
p1682
sV192.150.187.137
p1683
VFGHRSDV
p1684
sV192.160.102.164
p1685
VEFGHRSDV
p1686
sV192.160.102.165
p1687
VEFGHRSDV
p1688
sV192.160.102.166
p1689
VEFGHRSDV
p1690
sV192.160.102.168
p1691
VEFGHRSDV
p1692
sV192.160.102.169
p1693
VEFGHRSDV
p1694
sV192.160.102.170
p1695
VEFGHRSDV
p1696
sV192.165.122.22
p1697
VFGHRSDV
p1698
sV192.195.80.10
p1699
VEFGHRSDV
p1700
sV192.3.169.210
p1701
VFGRSDVX
p1702
sV192.36.38.33
p1703
VFGHRSDV
p1704
sV192.42.113.102
p1705
VFGHRSDV
p1706
sV192.42.115.101
p1707
VFGHRSDV
p1708
sV192.42.115.102
p1709
VFGHRSDV
p1710
sV192.42.116.13
p1711
VEFGHRSDV
p1712
sV192.42.116.14
p1713
VEFGHRSDV
p1714
sV192.42.116.15
p1715
VEFGHRSDV
p1716
sV192.42.116.16
p1717
VEFGHRSDV
p1718
sV192.42.116.161
p1719
VFGHRSDV
p1720
sV192.42.116.17
p1721
VEFGHRSDV
p1722
sV192.42.116.18
p1723
VEFGHRSDV
p1724
sV192.42.116.19
p1725
VEFGHRSDV
p1726
sV192.42.116.20
p1727
VEFGHRSDV
p1728
sV192.42.116.22
p1729
VEFGHRSDV
p1730
sV192.42.116.23
p1731
VEFGHRSDV
p1732
sV192.42.116.24
p1733
VEFGHRSDV
p1734
sV192.42.116.25
p1735
VEFGHRSDV
p1736
sV192.42.116.26
p1737
VEFGHRSDV
p1738
sV192.42.116.27
p1739
VEFGHRSDV
p1740
sV192.42.116.28
p1741
VEFGHRSDV
p1742
sV192.42.132.106
p1743
VFGHRSDV
p1744
sV192.44.30.40
p1745
VFGHRSDV
p1746
sV192.52.167.70
p1747
VFGRSDV
p1748
sV192.52.167.71
p1749
VFGRSDV
p1750
sV192.87.28.28
p1751
VFGHRSDV
p1752
sV192.87.28.82
p1753
VFGHRSDV
p1754
sV192.99.13.48
p1755
VFGHRSDV
p1756
sV192.99.140.196
p1757
VFGHRSDV
p1758
sV192.99.151.112
p1759
VFGRSDVX
p1760
sV192.99.34.48
p1761
VFGRSDV
p1762
sV192.99.35.91
p1763
VFGRSDV
p1764
sV192.99.54.193
p1765
VFGHRSDV
p1766
sV192.99.57.111
p1767
VFGHRSDV
p1768
sV192.99.63.44
p1769
VFGHRSDV
p1770
sV192.99.69.17
p1771
VFGHRSDV
p1772
sV193.0.213.42
p1773
VFGHRSDV
p1774
sV193.105.73.80
p1775
VFGHRSDV
p1776
sV193.106.166.105
p1777
VFGHRSDV
p1778
sV193.107.85.56
p1779
VEFGRSDV
p1780
sV193.107.85.60
p1781
VEFGRSDV
p1782
sV193.107.85.62
p1783
VEFGRSDV
p1784
sV193.11.114.43
p1785
VFGHRSDV
p1786
sV193.11.114.45
p1787
VFGHRSDV
p1788
sV193.11.114.46
p1789
VFGHRSDV
p1790
sV193.11.114.69
p1791
VFGRSDV
p1792
sV193.11.164.243
p1793
VFGHRSDV
p1794
sV193.11.166.194
p1795
VFGHRSDV
p1796
sV193.110.157.151
p1797
VEFGHRSDV
p1798
sV193.111.26.37
p1799
VFGHRSDV
p1800
sV193.124.181.50
p1801
VFGHRSDV
p1802
sV193.124.182.191
p1803
VFGHRSDV
p1804
sV193.164.133.89
p1805
VFGRSDV
p1806
sV193.169.145.194
p1807
VEFGRSDV
p1808
sV193.169.145.202
p1809
VEFGRSDV
p1810
sV193.169.145.66
p1811
VEFGRSDV
p1812
sV193.171.202.146
p1813
VEFGHRSDV
p1814
sV193.19.118.171
p1815
VFGRSDVX
p1816
sV193.200.241.195
p1817
VFGHRSDV
p1818
sV193.201.225.45
p1819
VEFGHRSDV
p1820
sV193.22.133.92
p1821
VFGHRSDV
p1822
sV193.228.143.17
p1823
VFGHRSDV
p1824
sV193.234.15.55
p1825
VFGRSDV
p1826
sV193.234.15.56
p1827
VFGRSDV
p1828
sV193.234.15.57
p1829
VFGRSDV
p1830
sV193.234.15.58
p1831
VFGRSDV
p1832
sV193.234.15.59
p1833
VFGRSDV
p1834
sV193.234.15.60
p1835
VFGRSDV
p1836
sV193.234.15.61
p1837
VFGRSDV
p1838
sV193.234.15.62
p1839
VFGRSDV
p1840
sV193.30.121.7
p1841
VFGRSDV
p1842
sV193.35.52.53
p1843
VFGHRSDV
p1844
sV193.42.156.106
p1845
VFGRSDV
p1846
sV193.63.58.76
p1847
VFGRSDV
p1848
sV193.70.112.165
p1849
VFGRSDV
p1850
sV193.70.40.121
p1851
VFGRSDV
p1852
sV193.70.43.102
p1853
VFGHRSDV
p1854
sV193.70.43.20
p1855
VFGHRSDV
p1856
sV193.70.43.76
p1857
VFGRSDV
p1858
sV193.84.190.54
p1859
VFGHRSDV
p1860
sV194.160.170.212
p1861
VFGHRSDV
p1862
sV194.187.207.45
p1863
VFGHRSDV
p1864
sV194.187.249.116
p1865
VFGRSDV
p1866
sV194.88.143.66
p1867
VFGRSDVX
p1868
sV195.113.199.99
p1869
VFGHRSDV
p1870
sV195.122.181.242
p1871
VFGHRSDV
p1872
sV195.123.209.7
p1873
VFGHRSDV
p1874
sV195.123.212.228
p1875
VFGHRSDV
p1876
sV195.123.212.243
p1877
VFGHRSDV
p1878
sV195.123.213.116
p1879
VEFGHRSDV
p1880
sV195.123.233.132
p1881
VFGHRSDV
p1882
sV195.144.21.175
p1883
VFGHRSDV
p1884
sV195.148.124.199
p1885
VFGHRSDV
p1886
sV195.154.105.170
p1887
VFGHRSDV
p1888
sV195.154.156.231
p1889
VFGHRSDV
p1890
sV195.154.161.5
p1891
VFGHRSDV
p1892
sV195.154.162.172
p1893
VFGHRSDV
p1894
sV195.154.163.119
p1895
VFGHRSDV
p1896
sV195.154.164.243
p1897
VFGRSDV
p1898
sV195.154.165.64
p1899
VFGHRSDV
p1900
sV195.154.171.24
p1901
VFGHRSDV
p1902
sV195.154.177.231
p1903
VFGRSDV
p1904
sV195.154.181.146
p1905
VFGRSDV
p1906
sV195.154.200.129
p1907
VFGHRSDV
p1908
sV195.154.209.91
p1909
VFGRSDV
p1910
sV195.154.221.65
p1911
VFGHRSDV
p1912
sV195.154.237.179
p1913
VFGHRSDV
p1914
sV195.154.240.145
p1915
VFGRSDV
p1916
sV195.154.241.125
p1917
VFGRSDV
p1918
sV195.154.250.239
p1919
VFGHRSDV
p1920
sV195.154.252.88
p1921
VFGRSDV
p1922
sV195.154.253.226
p1923
VFGRSDV
p1924
sV195.169.125.226
p1925
VFGRSDV
p1926
sV195.170.63.164
p1927
VFGHRSDVX
p1928
sV195.176.3.19
p1929
VEFGHRSDV
p1930
sV195.176.3.20
p1931
VEFGHRSDV
p1932
sV195.191.233.220
p1933
VFGHRSDV
p1934
sV195.191.81.7
p1935
VFGRSDV
p1936
sV195.201.103.59
p1937
VFGHRSDV
p1938
sV195.201.113.193
p1939
VFGHRSDV
p1940
sV195.201.121.3
p1941
VFGRSDV
p1942
sV195.201.138.156
p1943
VFGHRSDV
p1944
sV195.201.141.166
p1945
VFGHRSDV
p1946
sV195.201.143.191
p1947
VFGHRSDV
p1948
sV195.201.20.181
p1949
VFGRSDV
p1950
sV195.201.21.75
p1951
VFGHRSDV
p1952
sV195.201.22.234
p1953
VFGHRSDV
p1954
sV195.201.25.41
p1955
VFGHRSDV
p1956
sV195.201.26.209
p1957
VFGHRSDV
p1958
sV195.201.27.159
p1959
VFGHRSDV
p1960
sV195.201.88.13
p1961
VFGRSDV
p1962
sV195.201.94.113
p1963
VFGHRSDV
p1964
sV195.201.97.184
p1965
VFGHRSDV
p1966
sV195.22.126.233
p1967
VFGRSDV
p1968
sV195.228.45.176
p1969
VEFGHRSDV
p1970
sV195.228.75.149
p1971
VFGHRSDV
p1972
sV195.251.252.226
p1973
VFGHRSDV
p1974
sV195.254.134.194
p1975
VEFGRSDV
p1976
sV195.254.134.242
p1977
VEFGRSDV
p1978
sV195.254.135.76
p1979
VEFGRSDV
p1980
sV195.30.107.220
p1981
VFGHRSDV
p1982
sV197.231.221.211
p1983
VEFGHRSDV
p1984
sV198.100.147.184
p1985
VFGHRSDV
p1986
sV198.100.149.116
p1987
VFGHRSDV
p1988
sV198.100.155.148
p1989
VFGHRSDV
p1990
sV198.16.92.157
p1991
VFGRSDV
p1992
sV198.180.150.9
p1993
VFGHRSDV
p1994
sV198.245.50.175
p1995
VFGHRSDV
p1996
sV198.255.78.54
p1997
VFGHRSDV
p1998
sV198.27.191.1
p1999
VFGHRSDV
p2000
sV198.27.64.215
p2001
VFGHRSDV
p2002
sV198.27.66.209
p2003
VFGRSDV
p2004
sV198.40.54.178
p2005
VEFGHRSDV
p2006
sV198.50.135.213
p2007
VFGHRSDV
p2008
sV198.50.146.252
p2009
VFGHRSDV
p2010
sV198.50.191.95
p2011
VFGHRSDVX
p2012
sV198.50.200.129
p2013
VEFGHRSDV
p2014
sV198.50.200.131
p2015
VEFGHRSDV
p2016
sV198.50.200.135
p2017
VEFGHRSDV
p2018
sV198.50.211.194
p2019
VFGHRSDV
p2020
sV198.96.155.3
p2021
VEFGHRSDV
p2022
sV198.98.55.14
p2023
VFGHRSDV
p2024
sV198.98.56.149
p2025
VEFGHRSDV
p2026
sV198.98.58.88
p2027
VFGHRSDV
p2028
sV198.98.61.36
p2029
VEFGHRSDV
p2030
sV198.98.62.56
p2031
VFGRSDV
p2032
sV199.119.112.171
p2033
VFGHRSDV
p2034
sV199.15.250.210
p2035
VFGRSDV
p2036
sV199.184.246.250
p2037
VFGHRSDV
p2038
sV199.189.62.251
p2039
VFGHRSDV
p2040
sV199.195.248.44
p2041
VFGHRSDV
p2042
sV199.195.249.221
p2043
VFGHRSDV
p2044
sV199.195.250.68
p2045
VEFGHRSDV
p2046
sV199.195.250.77
p2047
VEFGRSDV
p2048
sV199.249.223.40
p2049
VEFGRSDV
p2050
sV199.249.223.41
p2051
VEFGRSDV
p2052
sV199.249.223.42
p2053
VEFGRSDV
p2054
sV199.249.223.43
p2055
VEFGRSDV
p2056
sV199.249.223.44
p2057
VEFGRSDV
p2058
sV199.249.223.45
p2059
VEFGRSDV
p2060
sV199.249.223.46
p2061
VEFGRSDV
p2062
sV199.249.223.47
p2063
VEFGRSDV
p2064
sV199.249.223.48
p2065
VEFGRSDV
p2066
sV199.249.223.49
p2067
VEFGRSDV
p2068
sV199.249.223.60
p2069
VEFGRSDV
p2070
sV199.249.223.61
p2071
VEFGRSDV
p2072
sV199.249.223.62
p2073
VEFGRSDV
p2074
sV199.249.223.63
p2075
VEFGRSDV
p2076
sV199.249.223.64
p2077
VEFGRSDV
p2078
sV199.249.223.65
p2079
VEFGRSDV
p2080
sV199.249.223.66
p2081
VEFGRSDV
p2082
sV199.249.223.67
p2083
VEFGRSDV
p2084
sV199.249.223.68
p2085
VEFGRSDV
p2086
sV199.249.223.69
p2087
VEFGRSDV
p2088
sV199.249.223.71
p2089
VEFGRSDV
p2090
sV199.249.223.72
p2091
VEFGRSDV
p2092
sV199.249.223.73
p2093
VEFGRSDV
p2094
sV199.249.223.74
p2095
VEFGRSDV
p2096
sV199.249.223.75
p2097
VEFGRSDV
p2098
sV199.249.223.76
p2099
VEFGRSDV
p2100
sV199.249.223.77
p2101
VEFGRSDV
p2102
sV199.249.223.78
p2103
VEFGRSDV
p2104
sV199.249.223.79
p2105
VEFGRSDV
p2106
sV199.87.154.255
p2107
VEFGHRSDV
p2108
sV2.225.231.92
p2109
VFGRSDV
p2110
sV200.122.181.101
p2111
VFGHRSDV
p2112
sV200.122.181.2
p2113
VFGRSDV
p2114
sV200.122.181.78
p2115
VFGRSDV
p2116
sV204.11.50.131
p2117
VEFGHRSDV
p2118
sV204.12.208.58
p2119
VEFGHRSDV
p2120
sV204.17.56.42
p2121
VEFGHRSDV
p2122
sV204.194.29.4
p2123
VEFGHRSDV
p2124
sV204.44.89.229
p2125
VFGHRSDV
p2126
sV204.8.156.142
p2127
VEFGHRSDV
p2128
sV204.85.191.30
p2129
VEFGHRSDV
p2130
sV204.85.191.31
p2131
VEFGHRSDV
p2132
sV204.9.50.25
p2133
VFGHRSDV
p2134
sV205.185.113.14
p2135
VEFGHRSDV
p2136
sV205.185.117.207
p2137
VEFGHRSDV
p2138
sV205.185.118.79
p2139
VFGHRSDV
p2140
sV205.185.121.251
p2141
VFGHRSDV
p2142
sV205.185.122.150
p2143
VFGHRSDV
p2144
sV205.185.127.219
p2145
VEFGRSDV
p2146
sV205.201.63.18
p2147
VFGHRSDV
p2148
sV206.192.252.210
p2149
VFGRSDV
p2150
sV206.55.188.243
p2151
VFGHRSDV
p2152
sV206.55.74.1
p2153
VFGHRSDV
p2154
sV207.148.0.27
p2155
VFGHRSDV
p2156
sV207.180.194.30
p2157
VEFGRSDV
p2158
sV207.244.70.35
p2159
VEFGRSDV
p2160
sV208.113.131.196
p2161
VFGHRSDV
p2162
sV208.113.135.162
p2163
VFGHRSDV
p2164
sV208.113.166.5
p2165
VFGHRSDV
p2166
sV208.118.235.48
p2167
VFGRSDV
p2168
sV208.38.243.107
p2169
VFGHRSDV
p2170
sV208.80.154.9
p2171
VFGHRSDV
p2172
sV208.94.242.26
p2173
VFGHRSDV
p2174
sV209.141.37.47
p2175
VFGHRSDV
p2176
sV209.141.45.119
p2177
VFGHRSDV
p2178
sV209.141.45.212
p2179
VEFGHRSDV
p2180
sV209.141.51.150
p2181
VEFGHRSDV
p2182
sV209.141.55.10
p2183
VEFGRSDV
p2184
sV209.141.61.45
p2185
VEFGHRSDV
p2186
sV209.148.46.83
p2187
VFGHRSDV
p2188
sV209.240.109.238
p2189
VFGHRSDV
p2190
sV212.129.34.13
p2191
VFGHRSDV
p2192
sV212.129.4.84
p2193
VFGHRSDV
p2194
sV212.129.5.219
p2195
VFGRSDV
p2196
sV212.129.57.254
p2197
VFGHRSDV
p2198
sV212.129.62.232
p2199
VFGHRSDV
p2200
sV212.149.175.233
p2201
VFGRSDV
p2202
sV212.16.170.158
p2203
VFGHRSDV
p2204
sV212.186.71.38
p2205
VFGHRSDV
p2206
sV212.187.200.170
p2207
VFGHRSDV
p2208
sV212.21.66.6
p2209
VEFGRSDV
p2210
sV212.220.212.56
p2211
VFGHRSDV
p2212
sV212.230.156.21
p2213
VFGRSDV
p2214
sV212.237.100.250
p2215
VFGHRSDV
p2216
sV212.47.227.71
p2217
VFGHRSDV
p2218
sV212.47.227.75
p2219
VFGHRSDV
p2220
sV212.47.229.2
p2221
VFGRSDV
p2222
sV212.47.230.49
p2223
VFGHRSDV
p2224
sV212.47.232.236
p2225
VFGRSDV
p2226
sV212.47.233.86
p2227
VFGHRSDV
p2228
sV212.47.234.192
p2229
VFGRSDV
p2230
sV212.47.234.22
p2231
VFGHRSDV
p2232
sV212.47.235.180
p2233
VFGHRSDV
p2234
sV212.47.236.95
p2235
VFGRSDV
p2236
sV212.47.237.191
p2237
VFGHRSDV
p2238
sV212.47.238.203
p2239
VFGRSDV
p2240
sV212.47.239.101
p2241
VFGHRSDV
p2242
sV212.47.239.151
p2243
VFGHRSDV
p2244
sV212.47.239.187
p2245
VFGHRSDV
p2246
sV212.47.239.6
p2247
VFGHRSDV
p2248
sV212.47.239.83
p2249
VFGHRSDV
p2250
sV212.47.240.10
p2251
VFGRSDV
p2252
sV212.47.240.189
p2253
VFGHRSDV
p2254
sV212.47.240.249
p2255
VFGHRSDV
p2256
sV212.47.243.166
p2257
VFGHRSDV
p2258
sV212.47.244.38
p2259
VFGHRSDV
p2260
sV212.47.244.98
p2261
VFGHRSDV
p2262
sV212.47.246.211
p2263
VFGRSDV
p2264
sV212.47.247.109
p2265
VFGRSDV
p2266
sV212.47.248.113
p2267
VFGHRSDV
p2268
sV212.47.248.93
p2269
VFGRSDV
p2270
sV212.47.249.63
p2271
VFGHRSDV
p2272
sV212.47.252.91
p2273
VFGRSDV
p2274
sV212.47.254.236
p2275
VFGHRSDV
p2276
sV212.51.134.123
p2277
VFGHRSDV
p2278
sV212.51.136.101
p2279
VFGHRSDV
p2280
sV212.51.156.165
p2281
VFGHRSDV
p2282
sV212.51.156.224
p2283
VFGHRSDV
p2284
sV212.51.156.25
p2285
VFGHRSDV
p2286
sV212.51.159.148
p2287
VFGRSDV
p2288
sV212.51.159.248
p2289
VFGRSDV
p2290
sV212.69.166.122
p2291
VFGRSDV
p2292
sV212.7.217.52
p2293
VFGRSDV
p2294
sV212.74.233.18
p2295
VFGHRSDV
p2296
sV212.83.154.33
p2297
VFGHRSDV
p2298
sV212.83.61.218
p2299
VFGRSDV
p2300
sV212.89.225.242
p2301
VFGHRSDV
p2302
sV213.124.169.159
p2303
VFGHRSDV
p2304
sV213.136.71.21
p2305
VFGHRSDVX
p2306
sV213.136.78.161
p2307
VFGRSDV
p2308
sV213.136.81.89
p2309
VFGHRSDV
p2310
sV213.141.138.174
p2311
VFGRSDV
p2312
sV213.152.162.5
p2313
VFGRSDV
p2314
sV213.152.168.27
p2315
VFGHRSDV
p2316
sV213.163.70.234
p2317
VFGHRSDV
p2318
sV213.169.148.151
p2319
VFGRSDV
p2320
sV213.179.158.241
p2321
VFGHRSDV
p2322
sV213.183.48.84
p2323
VFGHRSDV
p2324
sV213.21.26.171
p2325
VFGHRSDV
p2326
sV213.239.216.222
p2327
VFGHRSDV
p2328
sV213.239.217.105
p2329
VFGHRSDV
p2330
sV213.239.217.18
p2331
VFGHRSDV
p2332
sV213.246.39.160
p2333
VFGRSDV
p2334
sV213.246.56.79
p2335
VFGHRSDV
p2336
sV213.246.56.95
p2337
VFGHRSDV
p2338
sV213.32.119.219
p2339
VFGHRSDV
p2340
sV213.32.90.15
p2341
VFGHRSDV
p2342
sV213.61.215.54
p2343
VEFGHRSDV
p2344
sV213.89.10.205
p2345
VFGHRSDV
p2346
sV216.127.173.78
p2347
VFGRSDV
p2348
sV216.127.187.29
p2349
VFGRSDV
p2350
sV216.164.155.62
p2351
VFGHRSDV
p2352
sV216.194.170.108
p2353
VFGHRSDV
p2354
sV216.218.134.12
p2355
VEFGHRSDV
p2356
sV216.218.222.10
p2357
VFGHRSDV
p2358
sV216.239.90.19
p2359
VEFGHRSDV
p2360
sV216.24.242.34
p2361
VFGHRSDV
p2362
sV216.244.74.42
p2363
VFGHRSDV
p2364
sV217.112.131.24
p2365
VFGRSDV
p2366
sV217.112.131.98
p2367
VFGHRSDV
p2368
sV217.115.10.131
p2369
VEFGRSDV
p2370
sV217.12.199.182
p2371
VFGHRSDV
p2372
sV217.12.199.190
p2373
VFGHRSDV
p2374
sV217.12.203.46
p2375
VFGHRSDV
p2376
sV217.12.208.117
p2377
VFGHRSDV
p2378
sV217.12.221.110
p2379
VFGHRSDV
p2380
sV217.12.221.75
p2381
VFGHRSDV
p2382
sV217.12.221.97
p2383
VFGHRSDV
p2384
sV217.147.169.75
p2385
VEFGRSDV
p2386
sV217.147.214.107
p2387
VFGHRSDV
p2388
sV217.150.240.35
p2389
VFGHRSDV
p2390
sV217.155.40.118
p2391
VFGHRSDV
p2392
sV217.160.13.173
p2393
VFGHRSDV
p2394
sV217.160.141.52
p2395
VFGHRSDV
p2396
sV217.170.197.83
p2397
VEFGHRSDV
p2398
sV217.170.197.89
p2399
VEFGHRSDV
p2400
sV217.170.205.113
p2401
VFGHRSDV
p2402
sV217.182.168.178
p2403
VEFGHRSDV
p2404
sV217.182.196.65
p2405
VFGHRSDV
p2406
sV217.182.196.67
p2407
VFGHRSDV
p2408
sV217.182.196.68
p2409
VFGHRSDV
p2410
sV217.182.196.71
p2411
VFGRSDV
p2412
sV217.182.198.76
p2413
VFGHRSDV
p2414
sV217.182.198.80
p2415
VFGHRSDV
p2416
sV217.182.198.95
p2417
VFGHRSDV
p2418
sV217.182.51.248
p2419
VFGHRSDV
p2420
sV217.182.52.249
p2421
VFGHRSDV
p2422
sV217.182.66.71
p2423
VFGHRSDV
p2424
sV217.182.75.181
p2425
VFGRSDV
p2426
sV217.182.78.177
p2427
VEFGHRSDV
p2428
sV217.20.130.72
p2429
VFGHRSDV
p2430
sV217.23.15.200
p2431
VFGHRSDV
p2432
sV217.69.144.94
p2433
VFGHRSDV
p2434
sV217.79.178.18
p2435
VFGHRSDV
p2436
sV217.79.178.60
p2437
VFGHRSDV
p2438
sV217.79.179.177
p2439
VFGHRSDV
p2440
sV217.79.190.25
p2441
VFGHRSDV
p2442
sV217.88.177.22
p2443
VFGRSDV
p2444
sV23.165.192.253
p2445
VFGHRSDV
p2446
sV23.227.198.138
p2447
VFGHRSDV
p2448
sV23.239.30.69
p2449
VFGHRSDV
p2450
sV23.254.166.222
p2451
VFGHRSDV
p2452
sV23.254.167.231
p2453
VFGHRSDV
p2454
sV23.254.253.55
p2455
VFGHRSDV
p2456
sV23.81.66.90
p2457
VFGHRSDV
p2458
sV23.92.21.74
p2459
VFGHRSDV
p2460
sV23.94.113.11
p2461
VFGHRSDVX
p2462
sV23.94.113.156
p2463
VFGHRSDV
p2464
sV24.11.1.46
p2465
VFGRSDV
p2466
sV24.144.147.248
p2467
VFGHRSDV
p2468
sV24.228.55.141
p2469
VFGHRSDV
p2470
sV24.44.135.185
p2471
VFGHRSDV
p2472
sV24.96.173.104
p2473
VFGHRSDV
p2474
sV31.129.166.78
p2475
VFGHRSDV
p2476
sV31.13.188.43
p2477
VFGRSDV
p2478
sV31.131.2.17
p2479
VFGRSDV
p2480
sV31.131.2.19
p2481
VEFGRSDV
p2482
sV31.171.155.103
p2483
VFGRSDV
p2484
sV31.171.155.131
p2485
VEFGHRSDV
p2486
sV31.171.155.29
p2487
VFGRSDV
p2488
sV31.171.251.19
p2489
VFGRSDV
p2490
sV31.178.172.78
p2491
VFGHRSDV
p2492
sV31.18.153.145
p2493
VFGRSDV
p2494
sV31.184.198.152
p2495
VFGRSDV
p2496
sV31.184.198.183
p2497
VFGRSDV
p2498
sV31.185.104.19
p2499
VEFGHRSDV
p2500
sV31.185.104.20
p2501
VEFGHRSDV
p2502
sV31.185.104.21
p2503
VEFGHRSDV
p2504
sV31.211.215.105
p2505
VFGRSDV
p2506
sV31.28.168.174
p2507
VFGRSDV
p2508
sV31.31.72.24
p2509
VEFGRSDV
p2510
sV31.31.73.222
p2511
VFGHRSDV
p2512
sV31.31.74.131
p2513
VEFGRSDV
p2514
sV31.31.74.177
p2515
VFGHRSDV
p2516
sV31.31.74.210
p2517
VFGHRSDV
p2518
sV31.31.74.47
p2519
VFGRSDVX
p2520
sV31.31.76.120
p2521
VFGHRSDV
p2522
sV31.31.76.123
p2523
VFGHRSDV
p2524
sV31.31.78.49
p2525
VFGRSDV
p2526
sV31.45.114.220
p2527
VFGHRSDV
p2528
sV35.0.127.52
p2529
VEFGRSDV
p2530
sV35.170.77.224
p2531
VFGHRSDV
p2532
sV37.110.83.225
p2533
VFGHRSDV
p2534
sV37.113.170.171
p2535
VFGHRSDV
p2536
sV37.120.161.32
p2537
VFGHRSDV
p2538
sV37.120.172.242
p2539
VFGHRSDV
p2540
sV37.120.174.249
p2541
VFGHRSDV
p2542
sV37.120.191.245
p2543
VFGHRSDV
p2544
sV37.128.222.30
p2545
VEFGHRSDV
p2546
sV37.134.197.201
p2547
VFGHRSDV
p2548
sV37.139.8.104
p2549
VEFGRSDV
p2550
sV37.153.1.10
p2551
VFGHRSDV
p2552
sV37.153.16.170
p2553
VFGRSDV
p2554
sV37.157.195.83
p2555
VFGHRSDV
p2556
sV37.157.195.87
p2557
VFGHRSDV
p2558
sV37.157.196.142
p2559
VFGHRSDV
p2560
sV37.157.255.35
p2561
VFGHRSDV
p2562
sV37.187.102.108
p2563
VFGRSDV
p2564
sV37.187.102.5
p2565
VFGHRSDV
p2566
sV37.187.103.156
p2567
VFGHRSDV
p2568
sV37.187.103.213
p2569
VFGHRSDV
p2570
sV37.187.105.65
p2571
VFGRSDV
p2572
sV37.187.107.91
p2573
VFGHRSDV
p2574
sV37.187.115.157
p2575
VFGHRSDV
p2576
sV37.187.115.47
p2577
VFGHRSDV
p2578
sV37.187.117.138
p2579
VFGHRSDVX
p2580
sV37.187.122.101
p2581
VFGHRSDV
p2582
sV37.187.122.8
p2583
VFGHRSDV
p2584
sV37.187.155.229
p2585
VFGRSDV
p2586
sV37.187.16.175
p2587
VFGHRSDV
p2588
sV37.187.16.43
p2589
VFGHRSDV
p2590
sV37.187.17.67
p2591
VFGHRSDV
p2592
sV37.187.177.2
p2593
VFGRSDV
p2594
sV37.187.180.18
p2595
VEFGHRSDV
p2596
sV37.187.2.173
p2597
VFGRSDV
p2598
sV37.187.20.59
p2599
VFGHRSDV
p2600
sV37.187.21.11
p2601
VFGHRSDV
p2602
sV37.187.21.157
p2603
VFGHRSDV
p2604
sV37.187.22.131
p2605
VFGHRSDV
p2606
sV37.187.22.87
p2607
VFGHRSDV
p2608
sV37.187.23.169
p2609
VFGHRSDV
p2610
sV37.187.239.8
p2611
VFGHRSDVX
p2612
sV37.187.3.106
p2613
VFGHRSDV
p2614
sV37.187.30.78
p2615
VFGHRSDVX
p2616
sV37.187.4.8
p2617
VFGRSDV
p2618
sV37.187.42.161
p2619
VFGHRSDV
p2620
sV37.187.94.86
p2621
VEFGHRSDV
p2622
sV37.187.96.183
p2623
VFGHRSDV
p2624
sV37.187.96.78
p2625
VFGHRSDVX
p2626
sV37.187.96.84
p2627
VFGHRSDV
p2628
sV37.187.98.185
p2629
VFGRSDV
p2630
sV37.187.99.161
p2631
VFGHRSDVX
p2632
sV37.187.99.200
p2633
VFGHRSDV
p2634
sV37.191.160.173
p2635
VFGHRSDV
p2636
sV37.191.224.53
p2637
VFGHRSDV
p2638
sV37.191.229.124
p2639
VFGRSDV
p2640
sV37.191.234.163
p2641
VFGHRSDV
p2642
sV37.191.234.46
p2643
VFGHRSDV
p2644
sV37.191.235.30
p2645
VFGRSDV
p2646
sV37.191.237.60
p2647
VFGRSDV
p2648
sV37.191.241.78
p2649
VFGHRSDV
p2650
sV37.200.98.5
p2651
VFGHRSDV
p2652
sV37.200.99.251
p2653
VFGRSDV
p2654
sV37.205.8.191
p2655
VFGHRSDV
p2656
sV37.218.240.21
p2657
VEFGHRSDV
p2658
sV37.218.242.217
p2659
VFGHRSDV
p2660
sV37.218.245.25
p2661
VEFGRSDV
p2662
sV37.220.36.240
p2663
VEFGRSDV
p2664
sV37.221.162.226
p2665
VFGHRSDV
p2666
sV37.221.193.44
p2667
VFGHRSDV
p2668
sV37.228.129.2
p2669
VEFGHRSDV
p2670
sV37.228.129.27
p2671
VFGHRSDV
p2672
sV37.230.119.37
p2673
VFGRSDV
p2674
sV37.233.102.65
p2675
VEFGRSDV
p2676
sV37.233.103.114
p2677
VEFGRSDV
p2678
sV37.233.99.157
p2679
VFGRSDVX
p2680
sV37.247.42.121
p2681
VFGHRSDV
p2682
sV37.252.185.180
p2683
VFGRSDV
p2684
sV37.252.185.182
p2685
VFGRSDV
p2686
sV37.252.185.87
p2687
VFGHRSDV
p2688
sV37.252.187.111
p2689
VFGRSDV
p2690
sV37.252.187.3
p2691
VFGRSDV
p2692
sV37.252.190.176
p2693
VFGHRSDV
p2694
sV37.59.108.97
p2695
VFGHRSDV
p2696
sV37.59.112.7
p2697
VEFGHRSDV
p2698
sV37.59.118.7
p2699
VFGHRSDV
p2700
sV37.59.195.109
p2701
VFGRSDV
p2702
sV37.59.195.110
p2703
VFGRSDV
p2704
sV37.59.61.35
p2705
VFGHRSDV
p2706
sV37.75.227.17
p2707
VFGHRSDV
p2708
sV37.9.231.195
p2709
VFGHRSDVX
p2710
sV40.69.190.27
p2711
VFGHRSDV
p2712
sV45.123.118.101
p2713
VFGRSDV
p2714
sV45.32.203.34
p2715
VFGHRSDV
p2716
sV45.33.111.116
p2717
VFGHRSDV
p2718
sV45.55.240.225
p2719
VFGHRSDV
p2720
sV45.55.37.83
p2721
VFGHRSDV
p2722
sV45.62.212.190
p2723
VFGHRSDV
p2724
sV45.62.229.113
p2725
VFGHRSDV
p2726
sV45.62.242.212
p2727
VFGHRSDV
p2728
sV45.62.249.154
p2729
VFGHRSDV
p2730
sV45.62.250.119
p2731
VFGRSDV
p2732
sV45.62.253.173
p2733
VFGHRSDV
p2734
sV45.63.15.217
p2735
VFGHRSDV
p2736
sV45.76.92.117
p2737
VFGRSDV
p2738
sV45.77.13.56
p2739
VFGHRSDV
p2740
sV45.77.200.102
p2741
VFGHRSDV
p2742
sV45.77.224.85
p2743
VFGHRSDV
p2744
sV45.79.1.190
p2745
VEFGHRSDV
p2746
sV45.79.11.184
p2747
VFGHRSDV
p2748
sV45.79.138.8
p2749
VFGHRSDV
p2750
sV46.101.100.94
p2751
VFGHRSDV
p2752
sV46.101.178.190
p2753
VFGHRSDV
p2754
sV46.101.183.160
p2755
VFGRSDV
p2756
sV46.101.53.114
p2757
VFGHRSDV
p2758
sV46.101.9.51
p2759
VFGHRSDV
p2760
sV46.105.227.109
p2761
VFGRSDV
p2762
sV46.105.84.177
p2763
VFGHRSDV
p2764
sV46.107.100.150
p2765
VFGRSDVX
p2766
sV46.127.12.33
p2767
VFGHRSDV
p2768
sV46.148.18.34
p2769
VFGRSDV
p2770
sV46.163.78.14
p2771
VFGHRSDV
p2772
sV46.165.230.5
p2773
VEFGHRSDV
p2774
sV46.165.242.166
p2775
VFGRSDV
p2776
sV46.165.250.224
p2777
VFGHRSDV
p2778
sV46.165.254.166
p2779
VEFGHRSDV
p2780
sV46.166.139.35
p2781
VEFGHRSDV
p2782
sV46.166.162.53
p2783
VFGHRSDV
p2784
sV46.166.185.53
p2785
VFGHRSDV
p2786
sV46.173.214.3
p2787
VEFGHRSDV
p2788
sV46.182.106.190
p2789
VEFGHRSDV
p2790
sV46.183.218.80
p2791
VEFGHRSDV
p2792
sV46.183.218.82
p2793
VFGHRSDV
p2794
sV46.183.221.143
p2795
VFGHRSDV
p2796
sV46.183.221.155
p2797
VEFGHRSDV
p2798
sV46.188.31.94
p2799
VFGHRSDV
p2800
sV46.188.44.25
p2801
VFGRSDV
p2802
sV46.188.6.64
p2803
VFGHRSDV
p2804
sV46.20.46.216
p2805
VFGHRSDV
p2806
sV46.21.147.136
p2807
VFGRSDV
p2808
sV46.21.147.19
p2809
VFGRSDV
p2810
sV46.21.151.58
p2811
VFGHRSDV
p2812
sV46.22.212.230
p2813
VFGRSDV
p2814
sV46.229.238.172
p2815
VFGRSDV
p2816
sV46.23.72.81
p2817
VFGRSDV
p2818
sV46.23.83.35
p2819
VFGHRSDV
p2820
sV46.232.248.80
p2821
VFGRSDV
p2822
sV46.249.37.109
p2823
VFGRSDV
p2824
sV46.28.109.231
p2825
VFGHRSDV
p2826
sV46.28.110.244
p2827
VFGRSDV
p2828
sV46.28.207.107
p2829
VFGRSDV
p2830
sV46.29.163.187
p2831
VFGHRSDV
p2832
sV46.29.248.238
p2833
VEFGRSDV
p2834
sV46.29.250.27
p2835
VFGRSDV
p2836
sV46.36.38.76
p2837
VFGHRSDV
p2838
sV46.36.39.134
p2839
VFGRSDV
p2840
sV46.36.40.12
p2841
VFGHRSDV
p2842
sV46.38.234.52
p2843
VFGHRSDV
p2844
sV46.38.235.14
p2845
VEFGRSDV
p2846
sV46.38.237.221
p2847
VFGRSDV
p2848
sV46.38.238.209
p2849
VFGHRSDV
p2850
sV46.38.241.229
p2851
VFGHRSDVX
p2852
sV46.38.253.161
p2853
VFGRSDV
p2854
sV46.38.48.225
p2855
VFGRSDV
p2856
sV46.38.51.18
p2857
VFGRSDV
p2858
sV46.4.111.124
p2859
VFGHRSDV
p2860
sV46.4.122.173
p2861
VFGHRSDV
p2862
sV46.4.148.27
p2863
VFGHRSDV
p2864
sV46.4.148.28
p2865
VFGHRSDV
p2866
sV46.4.233.104
p2867
VFGHRSDV
p2868
sV46.4.34.242
p2869
VFGRSDV
p2870
sV46.4.40.67
p2871
VFGRSDV
p2872
sV46.4.49.201
p2873
VFGHRSDV
p2874
sV46.4.59.209
p2875
VFGHRSDV
p2876
sV46.41.130.68
p2877
VFGHRSDV
p2878
sV46.43.2.18
p2879
VFGHRSDV
p2880
sV46.6.4.107
p2881
VFGRSDV
p2882
sV46.72.239.87
p2883
VFGHRSDV
p2884
sV46.89.213.201
p2885
VFGHRSDV
p2886
sV46.92.109.114
p2887
VFGHRSDV
p2888
sV47.254.151.105
p2889
VFGHRSDVX
p2890
sV5.1.80.196
p2891
VFGRSDV
p2892
sV5.101.40.89
p2893
VEFGHRSDV
p2894
sV5.104.97.30
p2895
VFGHRSDV
p2896
sV5.135.115.34
p2897
VFGHRSDV
p2898
sV5.135.145.195
p2899
VFGHRSDV
p2900
sV5.135.152.66
p2901
VFGHRSDV
p2902
sV5.135.153.22
p2903
VFGHRSDV
p2904
sV5.135.153.80
p2905
VFGHRSDV
p2906
sV5.135.158.101
p2907
VEFGHRSDV
p2908
sV5.135.162.49
p2909
VFGHRSDV
p2910
sV5.135.176.38
p2911
VFGRSDV
p2912
sV5.135.178.184
p2913
VFGHRSDV
p2914
sV5.135.181.213
p2915
VFGHRSDV
p2916
sV5.135.186.73
p2917
VFGHRSDV
p2918
sV5.135.199.13
p2919
VFGRSDV
p2920
sV5.135.65.145
p2921
VFGRSDVX
p2922
sV5.14.173.76
p2923
VFGRSDV
p2924
sV5.147.248.158
p2925
VFGRSDV
p2926
sV5.189.132.79
p2927
VFGHRSDV
p2928
sV5.189.138.9
p2929
VFGHRSDV
p2930
sV5.189.140.21
p2931
VFGRSDV
p2932
sV5.189.142.118
p2933
VFGRSDV
p2934
sV5.189.150.139
p2935
VFGRSDV
p2936
sV5.189.158.111
p2937
VFGHRSDV
p2938
sV5.189.164.230
p2939
VFGRSDV
p2940
sV5.189.169.190
p2941
VFGHRSDV
p2942
sV5.189.181.61
p2943
VFGHRSDV
p2944
sV5.189.188.249
p2945
VFGHRSDV
p2946
sV5.19.162.103
p2947
VFGHRSDV
p2948
sV5.196.1.129
p2949
VEFGHRSDV
p2950
sV5.196.23.64
p2951
VFGRSDV
p2952
sV5.196.58.96
p2953
VFGRSDV
p2954
sV5.196.66.162
p2955
VEFGHRSDV
p2956
sV5.199.130.188
p2957
VEFGHRSDV
p2958
sV5.199.141.233
p2959
VFGHRSDVX
p2960
sV5.199.142.236
p2961
VFGHRSDV
p2962
sV5.2.73.217
p2963
VFGHRSDV
p2964
sV5.2.77.146
p2965
VEFGHRSDV
p2966
sV5.200.21.144
p2967
VFGHRSDV
p2968
sV5.200.23.84
p2969
VFGHRSDV
p2970
sV5.249.145.164
p2971
VFGHRSDV
p2972
sV5.35.241.238
p2973
VFGRSDV
p2974
sV5.39.18.194
p2975
VFGHRSDV
p2976
sV5.39.33.176
p2977
VFGRSDV
p2978
sV5.39.33.178
p2979
VFGRSDV
p2980
sV5.39.60.243
p2981
VFGRSDV
p2982
sV5.39.80.135
p2983
VFGRSDV
p2984
sV5.39.83.27
p2985
VFGHRSDV
p2986
sV5.39.92.199
p2987
VFGRSDV
p2988
sV5.44.101.190
p2989
VFGHRSDV
p2990
sV5.45.111.149
p2991
VFGHRSDV
p2992
sV5.61.34.63
p2993
VFGHRSDVX
p2994
sV5.79.68.161
p2995
VFGHRSDVX
p2996
sV5.9.121.207
p2997
VFGHRSDV
p2998
sV5.9.137.167
p2999
VFGHRSDV
p3000
sV5.9.143.163
p3001
VFGHRSDV
p3002
sV5.9.147.226
p3003
VFGHRSDV
p3004
sV5.9.153.5
p3005
VFGHRSDV
p3006
sV5.9.158.123
p3007
VFGHRSDV
p3008
sV5.9.158.75
p3009
VEFGRSDV
p3010
sV5.9.18.2
p3011
VFGHRSDV
p3012
sV5.9.42.230
p3013
VFGHRSDV
p3014
sV5.9.50.84
p3015
VFGHRSDV
p3016
sV5.9.7.130
p3017
VFGHRSDV
p3018
sV5.9.81.41
p3019
VFGHRSDV
p3020
sV5.9.88.74
p3021
VFGHRSDV
p3022
sV5.9.9.18
p3023
VFGRSDV
p3024
sV50.21.183.46
p3025
VFGHRSDV
p3026
sV50.236.201.218
p3027
VFGHRSDV
p3028
sV50.38.36.6
p3029
VFGHRSDV
p3030
sV50.7.115.12
p3031
VFGRSDV
p3032
sV50.7.115.67
p3033
VFGRSDV
p3034
sV50.7.151.32
p3035
VFGRSDV
p3036
sV50.7.151.47
p3037
VFGRSDV
p3038
sV50.7.176.2
p3039
VFGRSDVX
p3040
sV50.7.178.146
p3041
VFGRSDV
p3042
sV50.7.178.98
p3043
VFGRSDV
p3044
sV50.7.179.202
p3045
VFGRSDV
p3046
sV50.7.179.251
p3047
VFGRSDV
p3048
sV50.7.186.38
p3049
VFGRSDV
p3050
sV50.7.74.170
p3051
VFGHRSDV
p3052
sV50.7.74.171
p3053
VFGHRSDV
p3054
sV50.7.74.172
p3055
VFGHRSDV
p3056
sV50.7.74.173
p3057
VFGHRSDV
p3058
sV50.7.74.174
p3059
VFGHRSDV
p3060
sV50.7.8.29
p3061
VFGHRSDV
p3062
sV51.15.113.25
p3063
VFGHRSDV
p3064
sV51.15.113.85
p3065
VFGRSDV
p3066
sV51.15.116.141
p3067
VEFGRSDV
p3068
sV51.15.116.190
p3069
VFGHRSDV
p3070
sV51.15.124.1
p3071
VEFGRSDV
p3072
sV51.15.124.32
p3073
VFGHRSDV
p3074
sV51.15.13.178
p3075
VFGHRSDV
p3076
sV51.15.13.245
p3077
VFGHRSDVX
p3078
sV51.15.131.29
p3079
VFGHRSDV
p3080
sV51.15.138.212
p3081
VFGRSDV
p3082
sV51.15.138.251
p3083
VFGHRSDV
p3084
sV51.15.141.53
p3085
VFGHRSDV
p3086
sV51.15.142.0
p3087
VFGHRSDV
p3088
sV51.15.142.73
p3089
VFGHRSDV
p3090
sV51.15.143.239
p3091
VFGHRSDV
p3092
sV51.15.145.150
p3093
VFGHRSDV
p3094
sV51.15.166.221
p3095
VFGRSDV
p3096
sV51.15.174.186
p3097
VFGHRSDV
p3098
sV51.15.179.153
p3099
VFGHRSDV
p3100
sV51.15.192.77
p3101
VFGHRSDV
p3102
sV51.15.203.26
p3103
VFGRSDV
p3104
sV51.15.205.214
p3105
VEFGHRSDV
p3106
sV51.15.208.167
p3107
VFGHRSDV
p3108
sV51.15.209.128
p3109
VEFGHRSDV
p3110
sV51.15.213.219
p3111
VFGRSDV
p3112
sV51.15.219.22
p3113
VFGRSDV
p3114
sV51.15.226.118
p3115
VFGHRSDV
p3116
sV51.15.227.124
p3117
VFGHRSDV
p3118
sV51.15.228.222
p3119
VFGHRSDV
p3120
sV51.15.230.222
p3121
VFGRSDV
p3122
sV51.15.230.39
p3123
VFGHRSDV
p3124
sV51.15.232.19
p3125
VFGRSDV
p3126
sV51.15.233.253
p3127
VEFGHRSDV
p3128
sV51.15.240.157
p3129
VFGRSDV
p3130
sV51.15.241.133
p3131
VFGHRSDV
p3132
sV51.15.244.12
p3133
VFGHRSDV
p3134
sV51.15.246.170
p3135
VFGHRSDV
p3136
sV51.15.247.113
p3137
VFGHRSDV
p3138
sV51.15.249.161
p3139
VFGHRSDV
p3140
sV51.15.249.81
p3141
VFGHRSDV
p3142
sV51.15.34.165
p3143
VFGRSDV
p3144
sV51.15.34.214
p3145
VEFGHRSDV
p3146
sV51.15.35.75
p3147
VFGHRSDV
p3148
sV51.15.36.183
p3149
VFGHRSDV
p3150
sV51.15.36.42
p3151
VFGHRSDV
p3152
sV51.15.37.97
p3153
VFGHRSDVX
p3154
sV51.15.39.65
p3155
VFGHRSDV
p3156
sV51.15.40.200
p3157
VFGHRSDV
p3158
sV51.15.42.19
p3159
VFGHRSDV
p3160
sV51.15.43.205
p3161
VEFGHRSDV
p3162
sV51.15.44.157
p3163
VFGRSDV
p3164
sV51.15.44.251
p3165
VFGHRSDV
p3166
sV51.15.46.15
p3167
VFGHRSDV
p3168
sV51.15.47.17
p3169
VFGHRSDV
p3170
sV51.15.49.134
p3171
VEFGHRSDV
p3172
sV51.15.50.109
p3173
VFGHRSDV
p3174
sV51.15.50.36
p3175
VFGHRSDV
p3176
sV51.15.51.36
p3177
VFGHRSDV
p3178
sV51.15.54.117
p3179
VFGHRSDV
p3180
sV51.15.54.182
p3181
VFGHRSDV
p3182
sV51.15.55.121
p3183
VFGHRSDV
p3184
sV51.15.56.123
p3185
VFGHRSDV
p3186
sV51.15.57.167
p3187
VEFGHRSDV
p3188
sV51.15.58.212
p3189
VFGHRSDV
p3190
sV51.15.59.115
p3191
VFGHRSDV
p3192
sV51.15.6.88
p3193
VFGHRSDV
p3194
sV51.15.60.93
p3195
VFGHRSDV
p3196
sV51.15.62.130
p3197
VFGRSDV
p3198
sV51.15.64.212
p3199
VFGRSDV
p3200
sV51.15.65.243
p3201
VFGHRSDV
p3202
sV51.15.65.25
p3203
VEFGHRSDV
p3204
sV51.15.7.86
p3205
VFGHRSDV
p3206
sV51.15.72.209
p3207
VFGHRSDV
p3208
sV51.15.72.211
p3209
VEFGRSDV
p3210
sV51.15.73.133
p3211
VFGHRSDV
p3212
sV51.15.73.97
p3213
VFGHRSDV
p3214
sV51.15.74.130
p3215
VFGHRSDV
p3216
sV51.15.75.120
p3217
VFGHRSDV
p3218
sV51.15.76.184
p3219
VFGHRSDV
p3220
sV51.15.76.56
p3221
VFGHRSDV
p3222
sV51.15.77.244
p3223
VFGHRSDV
p3224
sV51.15.77.89
p3225
VFGRSDV
p3226
sV51.15.78.0
p3227
VFGRSDV
p3228
sV51.15.80.14
p3229
VEFGRSDV
p3230
sV51.15.80.59
p3231
VFGHRSDV
p3232
sV51.15.80.7
p3233
VFGHRSDV
p3234
sV51.15.81.148
p3235
VFGRSDV
p3236
sV51.15.81.222
p3237
VEFGHRSDV
p3238
sV51.15.81.3
p3239
VFGHRSDV
p3240
sV51.15.81.45
p3241
VFGHRSDV
p3242
sV51.15.82.2
p3243
VEFGRSDV
p3244
sV51.15.86.199
p3245
VFGHRSDV
p3246
sV51.15.89.218
p3247
VFGHRSDV
p3248
sV51.15.9.152
p3249
VFGHRSDV
p3250
sV51.15.91.217
p3251
VFGHRSDV
p3252
sV51.15.91.7
p3253
VFGRSDV
p3254
sV51.15.91.78
p3255
VFGHRSDV
p3256
sV51.15.94.132
p3257
VFGHRSDV
p3258
sV51.15.99.115
p3259
VFGHRSDV
p3260
sV51.154.17.162
p3261
VFGRSDV
p3262
sV51.175.113.105
p3263
VFGHRSDV
p3264
sV51.175.193.142
p3265
VFGHRSDV
p3266
sV51.254.101.242
p3267
VFGHRSDV
p3268
sV51.254.113.172
p3269
VFGHRSDV
p3270
sV51.254.113.208
p3271
VFGRSDV
p3272
sV51.254.114.134
p3273
VFGHRSDV
p3274
sV51.254.120.82
p3275
VFGHRSDV
p3276
sV51.254.127.93
p3277
VEFGRSDV
p3278
sV51.254.136.195
p3279
VFGRSDV
p3280
sV51.254.147.57
p3281
VFGHRSDV
p3282
sV51.254.209.128
p3283
VEFGHRSDV
p3284
sV51.254.218.247
p3285
VFGHRSDV
p3286
sV51.254.220.21
p3287
VFGHRSDV
p3288
sV51.254.35.151
p3289
VFGRSDV
p3290
sV51.254.38.249
p3291
VFGRSDV
p3292
sV51.254.45.43
p3293
VFGHRSDV
p3294
sV51.254.96.208
p3295
VFGRSDV
p3296
sV51.255.175.53
p3297
VFGHRSDV
p3298
sV51.255.198.77
p3299
VFGRSDV
p3300
sV51.255.202.66
p3301
VEFGHRSDV
p3302
sV51.255.203.235
p3303
VFGHRSDV
p3304
sV51.255.206.74
p3305
VFGHRSDV
p3306
sV51.255.26.152
p3307
VFGRSDV
p3308
sV51.255.26.153
p3309
VFGRSDV
p3310
sV51.255.26.154
p3311
VFGRSDV
p3312
sV51.255.26.155
p3313
VFGRSDV
p3314
sV51.255.39.110
p3315
VFGRSDV
p3316
sV51.255.41.65
p3317
VFGHRSDV
p3318
sV51.255.48.78
p3319
VFGHRSDV
p3320
sV51.38.112.240
p3321
VFGHRSDV
p3322
sV51.38.113.64
p3323
VEFGRSDV
p3324
sV51.38.128.92
p3325
VFGHRSDV
p3326
sV51.38.134.104
p3327
VFGRSDV
p3328
sV51.38.154.10
p3329
VFGRSDV
p3330
sV51.38.162.232
p3331
VEFGHRSDV
p3332
sV51.38.238.137
p3333
VFGHRSDV
p3334
sV51.38.64.136
p3335
VFGRSDVX
p3336
sV51.38.65.160
p3337
VFGRSDV
p3338
sV51.38.69.128
p3339
VEFGHRSDV
p3340
sV51.38.98.5
p3341
VFGRSDV
p3342
sV51.68.120.110
p3343
VFGHRSDV
p3344
sV51.75.19.170
p3345
VEFGHRSDV
p3346
sV54.172.29.192
p3347
VFGHRSDV
p3348
sV54.193.108.217
p3349
VFGHRSDV
p3350
sV54.36.120.156
p3351
VFGHRSDV
p3352
sV54.36.189.105
p3353
VEFGRSDV
p3354
sV54.36.205.38
p3355
VFGHRSDV
p3356
sV54.36.222.37
p3357
VEFGRSDV
p3358
sV54.36.227.247
p3359
VFGHRSDV
p3360
sV54.36.237.163
p3361
VFGRSDV
p3362
sV54.37.136.45
p3363
VFGHRSDV
p3364
sV54.37.137.76
p3365
VFGHRSDV
p3366
sV54.37.138.138
p3367
VFGHRSDV
p3368
sV54.37.138.3
p3369
VFGHRSDV
p3370
sV54.37.139.118
p3371
VFGHRSDV
p3372
sV54.37.16.241
p3373
VEFGHRSDV
p3374
sV54.37.17.235
p3375
VFGRSDV
p3376
sV54.37.18.129
p3377
VFGRSDV
p3378
sV54.37.73.111
p3379
VFGRSDV
p3380
sV54.37.73.76
p3381
VFGHRSDV
p3382
sV54.37.74.139
p3383
VFGHRSDV
p3384
sV54.37.74.60
p3385
VFGHRSDV
p3386
sV54.38.156.33
p3387
VFGHRSDV
p3388
sV54.38.157.194
p3389
VFGRSDV
p3390
sV54.38.29.232
p3391
VFGHRSDV
p3392
sV54.38.36.44
p3393
VFGHRSDV
p3394
sV54.38.52.91
p3395
VFGRSDV
p3396
sV54.39.145.149
p3397
VFGRSDV
p3398
sV54.39.145.150
p3399
VFGRSDV
p3400
sV54.39.145.151
p3401
VFGRSDV
p3402
sV54.88.165.229
p3403
VFGRSDV
p3404
sV62.102.148.172
p3405
VFGHRSDV
p3406
sV62.102.148.67
p3407
VEFGHRSDV
p3408
sV62.109.4.115
p3409
VFGHRSDV
p3410
sV62.112.10.18
p3411
VFGHRSDV
p3412
sV62.113.227.124
p3413
VFGRSDV
p3414
sV62.133.157.139
p3415
VFGHRSDV
p3416
sV62.133.201.128
p3417
VFGHRSDV
p3418
sV62.138.7.171
p3419
VFGHRSDV
p3420
sV62.141.36.150
p3421
VFGHRSDV
p3422
sV62.141.37.236
p3423
VEFGHRSDV
p3424
sV62.141.38.69
p3425
VFGRSDV
p3426
sV62.141.39.160
p3427
VFGHRSDV
p3428
sV62.141.39.8
p3429
VEFGHRSDV
p3430
sV62.141.48.175
p3431
VFGHRSDV
p3432
sV62.141.48.177
p3433
VFGHRSDV
p3434
sV62.141.51.90
p3435
VFGHRSDV
p3436
sV62.167.26.15
p3437
VFGHRSDV
p3438
sV62.210.105.116
p3439
VEFGRSDV
p3440
sV62.210.116.201
p3441
VEFGHRSDV
p3442
sV62.210.123.24
p3443
VFGHRSDV
p3444
sV62.210.125.130
p3445
VFGRSDV
p3446
sV62.210.138.3
p3447
VFGHRSDV
p3448
sV62.210.140.85
p3449
VFGHRSDV
p3450
sV62.210.157.133
p3451
VEFGHRSDV
p3452
sV62.210.189.34
p3453
VFGHRSDV
p3454
sV62.210.213.17
p3455
VFGHRSDV
p3456
sV62.210.217.207
p3457
VFGHRSDV
p3458
sV62.210.244.146
p3459
VFGHRSDV
p3460
sV62.210.253.101
p3461
VFGRSDV
p3462
sV62.210.254.132
p3463
VFGHRSDV
p3464
sV62.210.37.82
p3465
VEFGRSDV
p3466
sV62.210.5.178
p3467
VFGHRSDV
p3468
sV62.210.69.209
p3469
VFGHRSDV
p3470
sV62.210.71.205
p3471
VEFGHRSDV
p3472
sV62.210.81.144
p3473
VFGHRSDV
p3474
sV62.210.82.83
p3475
VFGHRSDV
p3476
sV62.210.85.178
p3477
VFGHRSDV
p3478
sV62.210.92.11
p3479
VFGHRSDV
p3480
sV62.210.93.142
p3481
VFGHRSDV
p3482
sV62.210.97.58
p3483
VFGHRSDV
p3484
sV62.212.72.243
p3485
VFGRSDV
p3486
sV62.212.73.141
p3487
VEFGHRSDV
p3488
sV62.214.6.61
p3489
VFGHRSDV
p3490
sV62.217.124.253
p3491
VFGRSDV
p3492
sV62.224.69.194
p3493
VFGHRSDV
p3494
sV62.251.113.60
p3495
VFGHRSDV
p3496
sV62.4.15.84
p3497
VFGHRSDV
p3498
sV62.78.245.129
p3499
VFGHRSDV
p3500
sV62.80.227.49
p3501
VFGHRSDV
p3502
sV63.165.242.34
p3503
VFGHRSDV
p3504
sV63.165.242.42
p3505
VFGHRSDV
p3506
sV64.113.32.29
p3507
VEFGHRSDV
p3508
sV64.124.175.204
p3509
VFGHRSDV
p3510
sV64.124.175.205
p3511
VFGHRSDV
p3512
sV64.124.175.206
p3513
VFGHRSDV
p3514
sV64.137.178.3
p3515
VFGRSDVX
p3516
sV64.137.187.219
p3517
VFGRSDV
p3518
sV64.137.189.210
p3519
VFGRSDV
p3520
sV64.137.222.8
p3521
VFGHRSDV
p3522
sV64.137.247.156
p3523
VFGHRSDV
p3524
sV64.190.90.60
p3525
VEFGRSDV
p3526
sV64.27.17.140
p3527
VEFGHRSDV
p3528
sV64.79.152.132
p3529
VFGHRSDV
p3530
sV65.19.167.130
p3531
VEFGHRSDV
p3532
sV65.19.167.132
p3533
VEFGHRSDV
p3534
sV65.19.167.133
p3535
VFGHRSDV
p3536
sV65.49.20.10
p3537
VFGHRSDV
p3538
sV65.49.20.11
p3539
VFGHRSDV
p3540
sV65.49.20.12
p3541
VFGHRSDV
p3542
sV66.111.2.16
p3543
VFGHRSDV
p3544
sV66.111.2.20
p3545
VFGHRSDV
p3546
sV66.146.193.33
p3547
VEFGHRSDV
p3548
sV66.175.208.248
p3549
VEFGHRSDV
p3550
sV66.175.223.145
p3551
VFGHRSDV
p3552
sV66.222.153.25
p3553
VEFGHRSDV
p3554
sV66.222.164.188
p3555
VFGHRSDV
p3556
sV66.70.160.200
p3557
VFGHRSDV
p3558
sV66.70.164.16
p3559
VFGHRSDV
p3560
sV66.70.204.175
p3561
VFGHRSDV
p3562
sV66.70.211.20
p3563
VFGHRSDV
p3564
sV66.70.217.179
p3565
VEFGHRSDV
p3566
sV66.99.86.51
p3567
VFGHRSDV
p3568
sV68.196.189.216
p3569
VFGHRSDV
p3570
sV69.163.35.222
p3571
VFGHRSDV
p3572
sV69.163.39.2
p3573
VFGHRSDV
p3574
sV69.164.198.32
p3575
VFGHRSDV
p3576
sV69.164.220.107
p3577
VFGRSDV
p3578
sV69.164.221.78
p3579
VFGRSDV
p3580
sV69.172.212.12
p3581
VFGHRSDV
p3582
sV69.30.215.42
p3583
VFGHRSDV
p3584
sV69.51.16.139
p3585
VFGHRSDV
p3586
sV69.62.162.178
p3587
VFGHRSDV
p3588
sV69.68.232.130
p3589
VFGRSDV
p3590
sV69.70.221.254
p3591
VFGHRSDV
p3592
sV70.81.89.171
p3593
VFGRSDV
p3594
sV70.96.196.77
p3595
VFGHRSDV
p3596
sV71.105.153.34
p3597
VFGHRSDV
p3598
sV71.165.151.35
p3599
VFGHRSDV
p3600
sV71.179.248.113
p3601
VFGHRSDV
p3602
sV71.19.144.106
p3603
VEFGHRSDV
p3604
sV71.19.144.148
p3605
VFGHRSDV
p3606
sV71.19.146.190
p3607
VFGHRSDV
p3608
sV71.19.146.250
p3609
VFGHRSDV
p3610
sV71.19.148.20
p3611
VFGHRSDV
p3612
sV71.19.155.121
p3613
VFGRSDV
p3614
sV71.244.170.22
p3615
VFGRSDV
p3616
sV72.42.157.155
p3617
VFGHRSDV
p3618
sV72.49.250.185
p3619
VFGRSDV
p3620
sV72.5.72.227
p3621
VFGHRSDV
p3622
sV72.52.75.27
p3623
VEFGHRSDV
p3624
sV72.66.111.83
p3625
VFGHRSDV
p3626
sV72.89.74.76
p3627
VFGHRSDV
p3628
sV74.115.25.12
p3629
VEFGHRSDV
p3630
sV74.208.247.181
p3631
VFGHRSDV
p3632
sV74.91.21.2
p3633
VFGHRSDV
p3634
sV75.164.216.140
p3635
VFGHRSDV
p3636
sV76.14.151.174
p3637
VFGHRSDV
p3638
sV76.64.166.230
p3639
VFGRSDV
p3640
sV76.99.68.171
p3641
VFGHRSDV
p3642
sV77.120.102.157
p3643
VFGRSDV
p3644
sV77.162.229.73
p3645
VFGHRSDV
p3646
sV77.20.203.35
p3647
VFGHRSDV
p3648
sV77.21.239.157
p3649
VFGHRSDV
p3650
sV77.22.188.240
p3651
VFGHRSDV
p3652
sV77.233.238.130
p3653
VFGHRSDV
p3654
sV77.243.191.102
p3655
VFGRSDV
p3656
sV77.247.181.163
p3657
VEFGHRSDV
p3658
sV77.247.181.165
p3659
VEFGHRSDV
p3660
sV77.37.142.179
p3661
VFGHRSDV
p3662
sV77.37.154.199
p3663
VFGHRSDV
p3664
sV77.37.238.189
p3665
VFGHRSDV
p3666
sV77.68.11.42
p3667
VFGRSDV
p3668
sV77.68.42.132
p3669
VFGHRSDVX
p3670
sV77.73.64.51
p3671
VFGHRSDV
p3672
sV77.81.226.184
p3673
VFGRSDV
p3674
sV77.87.50.6
p3675
VFGRSDV
p3676
sV78.107.239.213
p3677
VFGRSDV
p3678
sV78.109.23.2
p3679
VEFGRSDV
p3680
sV78.129.180.14
p3681
VFGHRSDV
p3682
sV78.129.186.88
p3683
VFGHRSDV
p3684
sV78.130.128.106
p3685
VFGRSDVX
p3686
sV78.142.140.242
p3687
VFGRSDV
p3688
sV78.142.19.11
p3689
VFGRSDV
p3690
sV78.142.19.43
p3691
VEFGHRSDV
p3692
sV78.193.140.4
p3693
VFGHRSDV
p3694
sV78.194.2.61
p3695
VFGRSDV
p3696
sV78.194.71.101
p3697
VFGHRSDV
p3698
sV78.46.103.30
p3699
VFGHRSDV
p3700
sV78.46.112.219
p3701
VFGHRSDV
p3702
sV78.46.217.214
p3703
VFGRSDV
p3704
sV78.46.244.138
p3705
VFGHRSDV
p3706
sV78.46.38.250
p3707
VFGHRSDV
p3708
sV78.46.51.124
p3709
VFGHRSDV
p3710
sV78.46.60.30
p3711
VFGHRSDV
p3712
sV78.47.134.196
p3713
VFGHRSDV
p3714
sV78.47.14.4
p3715
VFGRSDV
p3716
sV78.47.159.96
p3717
VFGHRSDV
p3718
sV78.47.18.110
p3719
VFGHRSDV
p3720
sV78.47.221.71
p3721
VFGHRSDV
p3722
sV78.47.224.219
p3723
VFGHRSDV
p3724
sV78.47.226.12
p3725
VFGHRSDV
p3726
sV78.47.70.5
p3727
VFGRSDV
p3728
sV78.56.40.22
p3729
VFGRSDV
p3730
sV79.124.60.246
p3731
VFGRSDV
p3732
sV79.124.7.11
p3733
VFGRSDV
p3734
sV79.134.234.247
p3735
VEFGHRSDV
p3736
sV79.136.39.189
p3737
VFGHRSDV
p3738
sV79.136.70.93
p3739
VFGHRSDV
p3740
sV79.137.106.154
p3741
VFGHRSDV
p3742
sV79.137.112.4
p3743
VFGHRSDV
p3744
sV79.137.112.5
p3745
VFGHRSDV
p3746
sV79.137.116.43
p3747
VFGHRSDV
p3748
sV79.137.33.131
p3749
VFGHRSDV
p3750
sV79.137.33.24
p3751
VFGHRSDV
p3752
sV79.137.39.39
p3753
VFGHRSDV
p3754
sV79.137.68.85
p3755
VEFGHRSDV
p3756
sV79.137.70.138
p3757
VFGRSDV
p3758
sV79.137.73.7
p3759
VFGHRSDV
p3760
sV79.137.75.5
p3761
VFGHRSDV
p3762
sV79.160.84.130
p3763
VFGHRSDV
p3764
sV79.172.193.32
p3765
VFGHRSDVX
p3766
sV79.199.251.80
p3767
VFGRSDV
p3768
sV79.234.191.77
p3769
VFGRSDV
p3770
sV79.244.148.28
p3771
VFGHRSDV
p3772
sV79.248.242.179
p3773
VFGHRSDV
p3774
sV79.98.104.68
p3775
VFGHRSDV
p3776
sV8.26.21.143
p3777
VFGHRSDV
p3778
sV8.9.31.140
p3779
VFGRSDV
p3780
sV80.112.144.71
p3781
VFGHRSDV
p3782
sV80.127.137.14
p3783
VFGHRSDV
p3784
sV80.127.137.19
p3785
VFGHRSDV
p3786
sV80.127.151.162
p3787
VFGHRSDV
p3788
sV80.127.152.30
p3789
VFGHRSDV
p3790
sV80.127.194.51
p3791
VFGRSDV
p3792
sV80.158.19.228
p3793
VFGHRSDV
p3794
sV80.208.231.147
p3795
VFGHRSDV
p3796
sV80.211.161.169
p3797
VFGRSDV
p3798
sV80.211.162.106
p3799
VFGHRSDV
p3800
sV80.211.183.59
p3801
VFGRSDV
p3802
sV80.211.184.186
p3803
VFGHRSDV
p3804
sV80.211.185.153
p3805
VFGHRSDV
p3806
sV80.211.202.73
p3807
VFGHRSDV
p3808
sV80.211.47.202
p3809
VFGHRSDV
p3810
sV80.211.76.120
p3811
VFGHRSDV
p3812
sV80.211.9.131
p3813
VFGHRSDV
p3814
sV80.212.163.253
p3815
VFGRSDV
p3816
sV80.219.143.85
p3817
VFGRSDV
p3818
sV80.221.149.147
p3819
VFGHRSDV
p3820
sV80.229.152.228
p3821
VFGRSDV
p3822
sV80.234.44.81
p3823
VFGHRSDV
p3824
sV80.240.216.253
p3825
VFGHRSDV
p3826
sV80.241.220.57
p3827
VFGHRSDV
p3828
sV80.253.92.198
p3829
VFGHRSDV
p3830
sV80.255.6.23
p3831
VFGRSDV
p3832
sV80.66.135.123
p3833
VFGHRSDV
p3834
sV80.67.172.162
p3835
VEFGHRSDV
p3836
sV80.82.215.17
p3837
VEFGHRSDV
p3838
sV80.82.222.151
p3839
VFGHRSDV
p3840
sV80.85.84.72
p3841
VFGHRSDV
p3842
sV81.0.226.3
p3843
VFGHRSDV
p3844
sV81.169.210.56
p3845
VFGRSDV
p3846
sV81.17.16.43
p3847
VFGRSDV
p3848
sV81.17.17.130
p3849
VFGRSDV
p3850
sV81.17.17.131
p3851
VFGRSDV
p3852
sV81.17.30.33
p3853
VFGRSDV
p3854
sV81.17.30.44
p3855
VFGRSDV
p3856
sV81.17.30.48
p3857
VFGRSDV
p3858
sV81.171.22.66
p3859
VFGHRSDV
p3860
sV81.2.197.33
p3861
VFGRSDV
p3862
sV81.2.209.10
p3863
VFGRSDV
p3864
sV81.22.255.146
p3865
VFGHRSDV
p3866
sV81.235.28.163
p3867
VFGRSDV
p3868
sV81.237.204.199
p3869
VFGRSDV
p3870
sV81.4.0.6
p3871
VEFGRSDV
p3872
sV81.6.37.253
p3873
VFGHRSDV
p3874
sV81.6.40.105
p3875
VFGHRSDV
p3876
sV81.7.10.193
p3877
VFGRSDV
p3878
sV81.7.10.251
p3879
VFGHRSDV
p3880
sV81.7.10.29
p3881
VFGHRSDV
p3882
sV81.7.11.186
p3883
VFGHRSDV
p3884
sV81.7.11.33
p3885
VFGHRSDV
p3886
sV81.7.11.96
p3887
VFGHRSDV
p3888
sV81.7.13.84
p3889
VFGHRSDV
p3890
sV81.7.14.253
p3891
VFGRSDV
p3892
sV81.7.14.31
p3893
VFGRSDV
p3894
sV81.7.16.177
p3895
VFGRSDV
p3896
sV81.7.16.59
p3897
VFGRSDV
p3898
sV81.7.18.9
p3899
VFGHRSDV
p3900
sV81.7.18.97
p3901
VFGHRSDV
p3902
sV81.7.3.67
p3903
VFGHRSDV
p3904
sV81.7.9.33
p3905
VFGRSDV
p3906
sV81.95.5.153
p3907
VFGRSDV
p3908
sV81.95.5.155
p3909
VFGHRSDV
p3910
sV82.103.140.87
p3911
VFGHRSDV
p3912
sV82.141.39.114
p3913
VFGHRSDV
p3914
sV82.146.47.17
p3915
VFGRSDV
p3916
sV82.165.247.47
p3917
VFGRSDV
p3918
sV82.165.70.65
p3919
VFGHRSDV
p3920
sV82.197.160.25
p3921
VFGRSDV
p3922
sV82.197.215.30
p3923
VFGRSDV
p3924
sV82.197.218.170
p3925
VFGRSDV
p3926
sV82.202.221.37
p3927
VFGHRSDV
p3928
sV82.211.0.201
p3929
VFGHRSDVX
p3930
sV82.220.89.53
p3931
VFGRSDV
p3932
sV82.221.105.198
p3933
VFGHRSDV
p3934
sV82.223.14.245
p3935
VEFGHRSDV
p3936
sV82.251.167.192
p3937
VFGHRSDV
p3938
sV82.94.132.34
p3939
VEFGHRSDV
p3940
sV82.94.251.227
p3941
VFGHRSDVX
p3942
sV83.136.106.105
p3943
VFGHRSDV
p3944
sV83.136.106.130
p3945
VFGHRSDV
p3946
sV83.136.106.136
p3947
VFGHRSDVX
p3948
sV83.136.106.182
p3949
VFGRSDV
p3950
sV83.162.173.113
p3951
VFGHRSDV
p3952
sV83.168.200.204
p3953
VFGHRSDV
p3954
sV83.212.100.100
p3955
VFGHRSDV
p3956
sV83.212.102.114
p3957
VFGHRSDV
p3958
sV83.212.104.145
p3959
VFGHRSDV
p3960
sV83.212.105.87
p3961
VFGRSDV
p3962
sV83.212.168.186
p3963
VFGRSDV
p3964
sV83.212.72.189
p3965
VFGHRSDV
p3966
sV83.212.99.68
p3967
VFGHRSDV
p3968
sV83.220.174.128
p3969
VFGHRSDV
p3970
sV83.227.87.11
p3971
VFGHRSDV
p3972
sV83.253.242.202
p3973
VFGHRSDV
p3974
sV83.57.174.16
p3975
VFGHRSDV
p3976
sV83.90.135.228
p3977
VFGHRSDV
p3978
sV84.19.181.25
p3979
VEFGRSDV
p3980
sV84.200.7.146
p3981
VFGHRSDV
p3982
sV84.209.48.106
p3983
VEFGHRSDV
p3984
sV84.227.197.239
p3985
VFGRSDV
p3986
sV84.239.153.105
p3987
VFGRSDV
p3988
sV84.240.60.234
p3989
VFGRSDV
p3990
sV84.248.192.62
p3991
VFGHRSDV
p3992
sV84.249.139.222
p3993
VFGHRSDV
p3994
sV84.47.64.210
p3995
VFGHRSDV
p3996
sV84.52.225.99
p3997
VFGHRSDV
p3998
sV84.74.211.66
p3999
VFGHRSDV
p4000
sV84.74.240.221
p4001
VFGHRSDV
p4002
sV85.10.196.12
p4003
VFGHRSDV
p4004
sV85.10.196.35
p4005
VFGHRSDV
p4006
sV85.10.198.236
p4007
VFGRSDV
p4008
sV85.10.201.47
p4009
VFGRSDV
p4010
sV85.10.216.118
p4011
VFGRSDV
p4012
sV85.10.240.250
p4013
VFGRSDV
p4014
sV85.12.221.233
p4015
VFGHRSDV
p4016
sV85.144.29.192
p4017
VFGHRSDV
p4018
sV85.159.237.210
p4019
VFGRSDVX
p4020
sV85.17.172.75
p4021
VFGHRSDV
p4022
sV85.195.230.129
p4023
VFGRSDV
p4024
sV85.199.141.237
p4025
VEFGHRSDV
p4026
sV85.2.25.242
p4027
VFGRSDV
p4028
sV85.204.121.218
p4029
VFGHRSDV
p4030
sV85.204.74.139
p4031
VFGRSDV
p4032
sV85.214.107.97
p4033
VFGHRSDV
p4034
sV85.214.159.109
p4035
VFGRSDV
p4036
sV85.214.212.153
p4037
VFGHRSDV
p4038
sV85.217.171.231
p4039
VFGHRSDV
p4040
sV85.229.164.77
p4041
VFGHRSDV
p4042
sV85.229.85.213
p4043
VFGHRSDV
p4044
sV85.230.184.93
p4045
VFGHRSDV
p4046
sV85.235.225.239
p4047
VFGHRSDV
p4048
sV85.235.250.88
p4049
VFGHRSDV
p4050
sV85.248.227.163
p4051
VEFGHRSDV
p4052
sV85.248.227.164
p4053
VEFGHRSDV
p4054
sV85.248.227.165
p4055
VEFGHRSDV
p4056
sV85.25.111.77
p4057
VFGHRSDV
p4058
sV85.25.133.34
p4059
VFGHRSDV
p4060
sV85.25.159.65
p4061
VFGHRSDV
p4062
sV85.25.213.211
p4063
VFGHRSDV
p4064
sV85.25.43.31
p4065
VFGHRSDV
p4066
sV85.25.44.141
p4067
VFGRSDVX
p4068
sV85.255.1.158
p4069
VFGHRSDV
p4070
sV85.93.16.47
p4071
VFGHRSDV
p4072
sV85.93.218.204
p4073
VEFGHRSDV
p4074
sV86.104.15.15
p4075
VFGRSDVX
p4076
sV86.105.212.130
p4077
VFGHRSDV
p4078
sV86.105.5.133
p4079
VFGRSDV
p4080
sV86.107.110.143
p4081
VFGHRSDV
p4082
sV86.107.110.34
p4083
VFGHRSDV
p4084
sV86.107.110.82
p4085
VFGHRSDV
p4086
sV86.150.71.106
p4087
VFGHRSDV
p4088
sV86.202.55.91
p4089
VFGRSDV
p4090
sV86.59.119.83
p4091
VFGRSDV
p4092
sV86.59.119.88
p4093
VFGRSDV
p4094
sV87.106.249.118
p4095
VFGHRSDV
p4096
sV87.118.112.136
p4097
VFGHRSDV
p4098
sV87.118.112.63
p4099
VFGHRSDV
p4100
sV87.118.116.12
p4101
VEFGHRSDV
p4102
sV87.118.116.90
p4103
VEFGHRSDV
p4104
sV87.118.122.120
p4105
VFGRSDV
p4106
sV87.118.122.30
p4107
VEFGHRSDV
p4108
sV87.118.122.50
p4109
VEFGHRSDV
p4110
sV87.118.122.51
p4111
VEFGHRSDV
p4112
sV87.118.83.3
p4113
VFGHRSDV
p4114
sV87.118.84.158
p4115
VFGHRSDV
p4116
sV87.118.92.43
p4117
VEFGRSDV
p4118
sV87.120.254.196
p4119
VFGRSDV
p4120
sV87.120.36.210
p4121
VFGRSDV
p4122
sV87.120.36.212
p4123
VFGRSDV
p4124
sV87.121.98.208
p4125
VFGHRSDV
p4126
sV87.121.98.43
p4127
VFGRSDV
p4128
sV87.139.33.217
p4129
VFGHRSDV
p4130
sV87.224.163.66
p4131
VFGHRSDV
p4132
sV87.233.197.114
p4133
VEFGHRSDV
p4134
sV87.236.194.23
p4135
VFGRSDV
p4136
sV87.73.84.77
p4137
VFGHRSDV
p4138
sV87.79.79.94
p4139
VFGHRSDV
p4140
sV87.98.185.5
p4141
VFGRSDV
p4142
sV87.98.245.84
p4143
VFGHRSDV
p4144
sV88.0.52.51
p4145
VFGHRSDV
p4146
sV88.113.240.71
p4147
VFGHRSDV
p4148
sV88.193.200.225
p4149
VFGHRSDV
p4150
sV88.198.154.20
p4151
VFGHRSDV
p4152
sV88.202.128.193
p4153
VFGHRSDV
p4154
sV88.217.170.108
p4155
VFGHRSDV
p4156
sV88.6.190.153
p4157
VFGHRSDV
p4158
sV88.81.37.69
p4159
VFGHRSDV
p4160
sV88.86.102.163
p4161
VFGRSDV
p4162
sV88.88.220.54
p4163
VFGRSDV
p4164
sV88.95.88.250
p4165
VFGHRSDV
p4166
sV88.98.252.234
p4167
VFGHRSDV
p4168
sV88.99.162.199
p4169
VFGHRSDV
p4170
sV88.99.172.64
p4171
VFGHRSDV
p4172
sV88.99.21.163
p4173
VFGRSDV
p4174
sV88.99.21.171
p4175
VFGRSDV
p4176
sV88.99.217.110
p4177
VFGRSDV
p4178
sV88.99.31.186
p4179
VFGHRSDV
p4180
sV88.99.37.232
p4181
VFGRSDV
p4182
sV88.99.39.90
p4183
VFGHRSDV
p4184
sV88.99.70.107
p4185
VFGHRSDV
p4186
sV89.108.87.161
p4187
VFGHRSDV
p4188
sV89.144.12.17
p4189
VEFGHRSDV
p4190
sV89.160.71.180
p4191
VFGRSDV
p4192
sV89.162.27.243
p4193
VFGHRSDV
p4194
sV89.163.129.131
p4195
VFGHRSDV
p4196
sV89.163.131.198
p4197
VFGHRSDV
p4198
sV89.163.157.143
p4199
VFGHRSDV
p4200
sV89.163.224.143
p4201
VFGHRSDV
p4202
sV89.163.224.250
p4203
VFGHRSDV
p4204
sV89.163.225.115
p4205
VFGHRSDV
p4206
sV89.163.225.145
p4207
VFGRSDV
p4208
sV89.163.225.6
p4209
VFGHRSDV
p4210
sV89.163.225.7
p4211
VFGHRSDV
p4212
sV89.163.240.115
p4213
VFGHRSDV
p4214
sV89.187.143.31
p4215
VFGRSDVX
p4216
sV89.187.143.81
p4217
VFGRSDVX
p4218
sV89.191.217.1
p4219
VFGHRSDV
p4220
sV89.221.210.151
p4221
VFGHRSDV
p4222
sV89.221.214.243
p4223
VFGHRSDVX
p4224
sV89.221.215.123
p4225
VFGHRSDV
p4226
sV89.221.215.124
p4227
VFGRSDV
p4228
sV89.221.215.169
p4229
VFGHRSDV
p4230
sV89.221.216.191
p4231
VFGRSDV
p4232
sV89.221.216.192
p4233
VFGRSDV
p4234
sV89.234.157.254
p4235
VEFGRSDV
p4236
sV89.234.186.116
p4237
VFGRSDV
p4238
sV89.236.34.117
p4239
VEFGHRSDV
p4240
sV89.238.77.4
p4241
VFGHRSDVX
p4242
sV89.238.77.5
p4243
VFGHRSDVX
p4244
sV89.241.35.62
p4245
VFGRSDV
p4246
sV89.249.65.153
p4247
VFGRSDV
p4248
sV89.249.65.249
p4249
VFGHRSDV
p4250
sV89.31.57.58
p4251
VEFGHRSDV
p4252
sV89.33.246.114
p4253
VFGRSDV
p4254
sV89.34.237.106
p4255
VFGHRSDV
p4256
sV89.34.237.13
p4257
VFGHRSDV
p4258
sV89.34.237.21
p4259
VFGRSDV
p4260
sV89.34.237.230
p4261
VFGRSDV
p4262
sV89.35.178.104
p4263
VFGRSDVX
p4264
sV89.35.39.108
p4265
VFGHRSDV
p4266
sV89.40.181.107
p4267
VFGRSDV
p4268
sV89.46.100.71
p4269
VFGRSDV
p4270
sV89.46.222.184
p4271
VFGHRSDV
p4272
sV90.107.50.136
p4273
VFGHRSDV
p4274
sV90.155.23.218
p4275
VFGHRSDV
p4276
sV90.191.166.97
p4277
VFGHRSDV
p4278
sV90.87.146.230
p4279
VFGHRSDV
p4280
sV91.11.79.146
p4281
VFGHRSDV
p4282
sV91.121.158.17
p4283
VFGHRSDVX
p4284
sV91.121.2.157
p4285
VFGHRSDV
p4286
sV91.121.224.10
p4287
VFGHRSDV
p4288
sV91.121.23.100
p4289
VFGHRSDV
p4290
sV91.121.75.85
p4291
VFGHRSDV
p4292
sV91.121.76.207
p4293
VFGRSDV
p4294
sV91.121.82.25
p4295
VFGRSDV
p4296
sV91.121.83.108
p4297
VFGHRSDV
p4298
sV91.121.84.137
p4299
VFGRSDV
p4300
sV91.121.85.130
p4301
VFGHRSDV
p4302
sV91.121.86.59
p4303
VFGHRSDV
p4304
sV91.134.133.88
p4305
VFGHRSDV
p4306
sV91.134.137.99
p4307
VFGRSDV
p4308
sV91.134.140.21
p4309
VFGHRSDV
p4310
sV91.134.147.134
p4311
VFGHRSDV
p4312
sV91.143.91.91
p4313
VFGHRSDV
p4314
sV91.143.93.29
p4315
VFGHRSDV
p4316
sV91.143.93.9
p4317
VFGRSDV
p4318
sV91.145.83.17
p4319
VFGRSDV
p4320
sV91.161.46.187
p4321
VFGHRSDV
p4322
sV91.186.8.150
p4323
VFGHRSDV
p4324
sV91.192.81.196
p4325
VEFGHRSDV
p4326
sV91.203.146.126
p4327
VFGRSDVX
p4328
sV91.203.5.146
p4329
VFGRSDVX
p4330
sV91.203.5.165
p4331
VFGRSDVX
p4332
sV91.211.247.246
p4333
VFGHRSDV
p4334
sV91.211.247.247
p4335
VFGHRSDV
p4336
sV91.213.8.101
p4337
VFGHRSDV
p4338
sV91.213.8.89
p4339
VFGHRSDV
p4340
sV91.217.90.55
p4341
VFGHRSDV
p4342
sV91.219.236.223
p4343
VFGHRSDV
p4344
sV91.219.236.250
p4345
VFGRSDV
p4346
sV91.219.237.117
p4347
VFGHRSDV
p4348
sV91.219.237.19
p4349
VFGHRSDV
p4350
sV91.219.237.244
p4351
VEFGHRSDV
p4352
sV91.219.238.120
p4353
VFGRSDV
p4354
sV91.219.239.92
p4355
VFGHRSDV
p4356
sV91.220.220.5
p4357
VFGRSDV
p4358
sV91.221.119.33
p4359
VFGHRSDV
p4360
sV91.221.66.21
p4361
VFGRSDV
p4362
sV91.223.82.154
p4363
VFGRSDV
p4364
sV91.229.20.27
p4365
VFGRSDV
p4366
sV91.229.76.124
p4367
VFGRSDV
p4368
sV91.231.86.204
p4369
VFGRSDVX
p4370
sV91.233.116.119
p4371
VFGRSDV
p4372
sV91.233.116.51
p4373
VFGRSDV
p4374
sV91.250.241.241
p4375
VFGRSDVX
p4376
sV91.250.84.156
p4377
VFGHRSDV
p4378
sV91.57.237.201
p4379
VFGHRSDV
p4380
sV91.77.162.130
p4381
VFGHRSDV
p4382
sV91.92.109.119
p4383
VEFGHRSDV
p4384
sV92.167.89.160
p4385
VFGHRSDV
p4386
sV92.220.40.210
p4387
VFGHRSDV
p4388
sV92.220.88.11
p4389
VFGHRSDV
p4390
sV92.221.192.252
p4391
VFGHRSDV
p4392
sV92.222.22.113
p4393
VFGHRSDVX
p4394
sV92.222.22.37
p4395
VFGHRSDV
p4396
sV92.222.22.91
p4397
VFGHRSDV
p4398
sV92.222.24.63
p4399
VFGHRSDV
p4400
sV92.222.38.67
p4401
VEFGHRSDV
p4402
sV92.222.39.183
p4403
VFGHRSDV
p4404
sV92.222.4.102
p4405
VFGHRSDV
p4406
sV92.222.67.229
p4407
VFGHRSDV
p4408
sV92.249.143.119
p4409
VFGHRSDV
p4410
sV92.34.131.170
p4411
VFGHRSDV
p4412
sV92.34.138.235
p4413
VFGHRSDV
p4414
sV92.35.17.173
p4415
VFGHRSDV
p4416
sV92.38.163.21
p4417
VFGRSDV
p4418
sV92.51.245.119
p4419
VFGHRSDV
p4420
sV92.55.0.224
p4421
VFGHRSDV
p4422
sV92.63.103.241
p4423
VEFGRSDV
p4424
sV93.104.209.61
p4425
VFGRSDV
p4426
sV93.108.197.92
p4427
VFGRSDV
p4428
sV93.115.241.50
p4429
VFGRSDV
p4430
sV93.115.84.143
p4431
VFGRSDV
p4432
sV93.115.86.4
p4433
VFGRSDVX
p4434
sV93.115.86.6
p4435
VFGRSDVX
p4436
sV93.115.86.8
p4437
VEFGRSDV
p4438
sV93.115.86.9
p4439
VFGRSDVX
p4440
sV93.115.91.66
p4441
VFGRSDV
p4442
sV93.115.95.38
p4443
VFGRSDV
p4444
sV93.115.97.242
p4445
VFGHRSDV
p4446
sV93.118.32.68
p4447
VFGHRSDV
p4448
sV93.174.93.133
p4449
VEFGRSDV
p4450
sV93.180.156.84
p4451
VFGHRSDV
p4452
sV93.180.157.154
p4453
VFGRSDV
p4454
sV93.184.21.161
p4455
VFGRSDV
p4456
sV93.186.200.144
p4457
VFGHRSDV
p4458
sV93.186.200.213
p4459
VFGHRSDV
p4460
sV93.190.141.115
p4461
VFGRSDV
p4462
sV93.226.62.83
p4463
VFGRSDV
p4464
sV93.55.224.50
p4465
VFGHRSDV
p4466
sV93.55.225.152
p4467
VFGHRSDV
p4468
sV93.90.204.219
p4469
VFGHRSDV
p4470
sV93.90.205.104
p4471
VFGHRSDV
p4472
sV93.90.206.129
p4473
VFGHRSDV
p4474
sV93.92.203.113
p4475
VFGHRSDV
p4476
sV93.92.205.248
p4477
VFGHRSDV
p4478
sV93.95.100.166
p4479
VFGHRSDV
p4480
sV93.95.100.179
p4481
VFGHRSDV
p4482
sV93.95.100.202
p4483
VFGRSDV
p4484
sV94.100.6.23
p4485
VFGHRSDV
p4486
sV94.102.51.78
p4487
VEFGHRSDV
p4488
sV94.130.146.179
p4489
VFGHRSDV
p4490
sV94.130.175.37
p4491
VFGHRSDV
p4492
sV94.130.180.220
p4493
VFGHRSDV
p4494
sV94.130.183.13
p4495
VFGRSDV
p4496
sV94.130.183.252
p4497
VFGRSDV
p4498
sV94.130.186.49
p4499
VFGHRSDV
p4500
sV94.130.186.5
p4501
VFGHRSDV
p4502
sV94.130.187.145
p4503
VFGHRSDV
p4504
sV94.130.187.164
p4505
VFGHRSDV
p4506
sV94.130.187.210
p4507
VFGHRSDV
p4508
sV94.130.215.49
p4509
VFGHRSDV
p4510
sV94.130.34.199
p4511
VFGRSDV
p4512
sV94.130.58.99
p4513
VFGHRSDV
p4514
sV94.130.69.171
p4515
VFGHRSDV
p4516
sV94.130.69.199
p4517
VFGHRSDV
p4518
sV94.140.120.44
p4519
VFGRSDV
p4520
sV94.140.125.70
p4521
VFGHRSDV
p4522
sV94.155.49.47
p4523
VFGHRSDV
p4524
sV94.156.144.239
p4525
VEFGHRSDV
p4526
sV94.156.175.120
p4527
VFGRSDV
p4528
sV94.156.189.12
p4529
VFGHRSDV
p4530
sV94.156.35.97
p4531
VFGHRSDV
p4532
sV94.16.113.67
p4533
VFGHRSDV
p4534
sV94.16.114.153
p4535
VFGRSDV
p4536
sV94.16.122.65
p4537
VFGHRSDV
p4538
sV94.16.123.176
p4539
VEFGRSDV
p4540
sV94.16.123.67
p4541
VFGHRSDV
p4542
sV94.16.171.41
p4543
VFGHRSDV
p4544
sV94.23.150.81
p4545
VFGHRSDV
p4546
sV94.23.17.58
p4547
VFGHRSDV
p4548
sV94.23.173.93
p4549
VFGHRSDV
p4550
sV94.23.194.134
p4551
VFGHRSDV
p4552
sV94.23.247.42
p4553
VFGRSDV
p4554
sV94.23.29.204
p4555
VFGRSDV
p4556
sV94.230.208.147
p4557
VEFGHRSDV
p4558
sV94.230.208.148
p4559
VEFGHRSDV
p4560
sV94.242.57.161
p4561
VEFGHRSDV
p4562
sV94.242.57.217
p4563
VFGHRSDV
p4564
sV94.242.58.103
p4565
VFGHRSDV
p4566
sV94.247.43.246
p4567
VFGHRSDV
p4568
sV94.254.35.25
p4569
VFGRSDV
p4570
sV94.29.91.115
p4571
VFGHRSDV
p4572
sV94.31.53.203
p4573
VFGRSDVX
p4574
sV94.61.117.176
p4575
VFGRSDV
p4576
sV95.128.43.164
p4577
VEFGHRSDV
p4578
sV95.130.10.69
p4579
VEFGHRSDV
p4580
sV95.130.12.119
p4581
VFGRSDV
p4582
sV95.130.12.33
p4583
VEFGRSDV
p4584
sV95.130.9.210
p4585
VEFGHRSDV
p4586
sV95.130.9.76
p4587
VFGHRSDV
p4588
sV95.130.9.90
p4589
VEFGHRSDV
p4590
sV95.141.35.15
p4591
VFGRSDVX
p4592
sV95.141.83.146
p4593
VFGHRSDV
p4594
sV95.142.161.63
p4595
VEFGRSDV
p4596
sV95.153.31.8
p4597
VFGRSDV
p4598
sV95.154.194.110
p4599
VFGHRSDV
p4600
sV95.154.24.73
p4601
VFGHRSDV
p4602
sV95.156.95.8
p4603
VFGHRSDV
p4604
sV95.163.252.1
p4605
VFGHRSDV
p4606
sV95.168.192.42
p4607
VFGHRSDV
p4608
sV95.168.216.152
p4609
VFGHRSDV
p4610
sV95.169.188.103
p4611
VFGRSDV
p4612
sV95.181.211.6
p4613
VFGHRSDV
p4614
sV95.211.138.7
p4615
VFGHRSDV
p4616
sV95.211.205.138
p4617
VFGRSDV
p4618
sV95.211.210.72
p4619
VFGRSDV
p4620
sV95.211.224.12
p4621
VFGHRSDV
p4622
sV95.211.94.113
p4623
VFGHRSDV
p4624
sV95.215.44.167
p4625
VFGHRSDV
p4626
sV95.215.45.138
p4627
VFGRSDV
p4628
sV95.215.45.188
p4629
VFGRSDV
p4630
sV95.215.46.46
p4631
VFGHRSDV
p4632
sV95.215.46.69
p4633
VFGHRSDV
p4634
sV95.216.136.153
p4635
VFGRSDV
p4636
sV95.216.136.34
p4637
VFGHRSDV
p4638
sV95.216.137.135
p4639
VFGRSDV
p4640
sV95.216.137.245
p4641
VFGRSDV
p4642
sV95.216.140.157
p4643
VFGHRSDV
p4644
sV95.216.140.159
p4645
VFGRSDV
p4646
sV95.216.142.105
p4647
VFGRSDV
p4648
sV95.216.143.200
p4649
VFGRSDV
p4650
sV95.216.145.1
p4651
VEFGRSDV
p4652
sV95.216.145.127
p4653
VFGRSDV
p4654
sV95.216.146.117
p4655
VFGHRSDV
p4656
sV95.216.154.147
p4657
VFGHRSDV
p4658
sV95.216.161.114
p4659
VFGRSDV
p4660
sV95.216.163.10
p4661
VFGRSDV
p4662
sV95.216.170.68
p4663
VFGRSDV
p4664
sV95.216.30.245
p4665
VFGHRSDV
p4666
sV95.31.24.146
p4667
VFGHRSDV
p4668
sV95.84.158.5
p4669
VFGHRSDV
p4670
sV95.90.126.10
p4671
VFGHRSDV
p4672
sV96.234.167.31
p4673
VFGHRSDV
p4674
sV96.234.40.193
p4675
VFGHRSDV
p4676
sV96.250.218.148
p4677
VFGHRSDV
p4678
sV96.253.78.108
p4679
VFGRSDV
p4680
sV98.109.211.99
p4681
VFGHRSDV
p4682
s.