(dp0
V100.14.173.231
p1
VFGHRSDV
p2
sV103.114.163.34
p3
VFGHRSDV
p4
sV103.119.112.78
p5
VFGHRSDV
p6
sV103.136.43.183
p7
VFGHRSDV
p8
sV103.208.220.122
p9
VEFGHRSDV
p10
sV103.208.220.226
p11
VEFGHRSDV
p12
sV103.28.53.138
p13
VEFGHRSDV
p14
sV104.167.100.86
p15
VFGRSDVX
p16
sV104.167.101.177
p17
VFGHRSDV
p18
sV104.167.102.164
p19
VFGHRSDVX
p20
sV104.167.103.8
p21
VFGHRSDV
p22
sV104.194.228.240
p23
VEFGHRSDV
p24
sV104.206.237.23
p25
VFGHRSDV
p26
sV104.206.237.24
p27
VFGHRSDV
p28
sV104.217.62.119
p29
VFGRSDV
p30
sV104.223.45.150
p31
VFGHRSDV
p32
sV104.236.19.120
p33
VFGHRSDV
p34
sV104.237.144.134
p35
VFGHRSDV
p36
sV104.238.167.111
p37
VFGHRSDV
p38
sV104.238.188.98
p39
VFGHRSDV
p40
sV104.244.72.155
p41
VFGRSDV
p42
sV104.244.72.232
p43
VFGRSDV
p44
sV104.244.73.126
p45
VEFGHRSDV
p46
sV104.244.74.165
p47
VEFGHRSDV
p48
sV104.244.74.34
p49
VEFGRSDV
p50
sV104.244.74.78
p51
VEFGRSDV
p52
sV104.244.75.105
p53
VFGHRSDV
p54
sV104.244.75.194
p55
VFGHRSDV
p56
sV104.244.76.13
p57
VEFGHRSDV
p58
sV104.244.76.184
p59
VFGRSDV
p60
sV104.244.76.24
p61
VFGHRSDV
p62
sV104.244.76.26
p63
VEFGRSDV
p64
sV104.244.76.34
p65
VFGRSDV
p66
sV104.244.77.111
p67
VFGHRSDV
p68
sV104.244.77.199
p69
VEFGRSDV
p70
sV104.244.78.121
p71
VFGHRSDV
p72
sV104.244.78.124
p73
VEFGHRSDV
p74
sV104.244.78.147
p75
VFGHRSDV
p76
sV104.244.78.233
p77
VEFGHRSDV
p78
sV104.37.192.156
p79
VFGHRSDV
p80
sV104.37.193.102
p81
VFGHRSDV
p82
sV104.42.7.97
p83
VFGHRSDV
p84
sV107.150.36.162
p85
VFGHRSDV
p86
sV107.155.49.126
p87
VEFGHRSDV
p88
sV107.170.113.28
p89
VFGHRSDV
p90
sV107.170.219.188
p91
VFGHRSDV
p92
sV107.174.101.41
p93
VFGHRSDV
p94
sV108.160.176.91
p95
VFGHRSDV
p96
sV108.206.76.242
p97
VFGHRSDV
p98
sV108.31.249.36
p99
VFGHRSDV
p100
sV108.39.229.147
p101
VFGHRSDV
p102
sV108.50.239.230
p103
VFGHRSDV
p104
sV108.53.208.157
p105
VFGHRSDV
p106
sV108.58.144.234
p107
VFGHRSDV
p108
sV108.6.138.221
p109
VFGHRSDV
p110
sV108.6.139.204
p111
VFGHRSDV
p112
sV108.61.99.149
p113
VFGHRSDV
p114
sV108.62.211.205
p115
VFGHRSDV
p116
sV109.105.109.162
p117
VFGHRSDV
p118
sV109.169.86.118
p119
VFGHRSDV
p120
sV109.173.41.42
p121
VFGHRSDV
p122
sV109.184.0.66
p123
VFGHRSDV
p124
sV109.197.193.160
p125
VFGHRSDV
p126
sV109.201.133.100
p127
VEFGHRSDV
p128
sV109.210.45.13
p129
VFGHRSDV
p130
sV109.238.11.6
p131
VFGHRSDV
p132
sV109.239.49.192
p133
VFGRSDV
p134
sV109.24.157.46
p135
VFGHRSDV
p136
sV109.248.43.30
p137
VFGRSDV
p138
sV109.68.191.132
p139
VFGHRSDV
p140
sV109.68.191.159
p141
VFGHRSDV
p142
sV109.69.67.17
p143
VEFGHRSDV
p144
sV109.70.100.10
p145
VEFGHRSDV
p146
sV109.70.100.11
p147
VEFGHRSDV
p148
sV109.70.100.12
p149
VFGHRSDV
p150
sV109.70.100.13
p151
VFGHRSDV
p152
sV109.70.100.14
p153
VFGHRSDV
p154
sV109.70.100.15
p155
VFGHRSDV
p156
sV109.70.100.16
p157
VFGHRSDV
p158
sV109.70.100.17
p159
VFGHRSDV
p160
sV109.70.100.2
p161
VEFGHRSDV
p162
sV109.70.100.3
p163
VEFGHRSDV
p164
sV109.70.100.4
p165
VEFGHRSDV
p166
sV109.70.100.5
p167
VEFGHRSDV
p168
sV109.70.100.6
p169
VEFGHRSDV
p170
sV109.70.100.7
p171
VEFGHRSDV
p172
sV109.70.100.8
p173
VEFGHRSDV
p174
sV109.70.100.9
p175
VEFGHRSDV
p176
sV109.74.11.81
p177
VFGHRSDV
p178
sV109.87.25.148
p179
VFGRSDV
p180
sV114.32.35.232
p181
VEFGHRSDV
p182
sV116.203.117.220
p183
VFGHRSDV
p184
sV116.203.124.242
p185
VFGRSDV
p186
sV116.203.135.179
p187
VFGHRSDV
p188
sV116.203.136.162
p189
VFGHRSDV
p190
sV116.203.40.245
p191
VFGRSDV
p192
sV116.203.50.182
p193
VFGHRSDV
p194
sV116.203.61.45
p195
VFGHRSDV
p196
sV116.203.64.212
p197
VFGHRSDV
p198
sV12.235.151.200
p199
VFGHRSDV
p200
sV128.12.177.59
p201
VFGRSDV
p202
sV128.14.136.158
p203
VEFGHRSDV
p204
sV128.208.2.233
p205
VFGHRSDV
p206
sV128.232.18.58
p207
VFGHRSDV
p208
sV128.31.0.61
p209
VFGRSDV
p210
sV128.39.8.29
p211
VFGHRSDV
p212
sV128.69.182.14
p213
VFGHRSDV
p214
sV128.72.208.131
p215
VFGRSDV
p216
sV129.100.38.88
p217
VFGHRSDV
p218
sV129.13.131.140
p219
VFGHRSDV
p220
sV129.233.217.29
p221
VFGRSDV
p222
sV129.242.219.85
p223
VFGHRSDV
p224
sV129.97.7.34
p225
VFGHRSDV
p226
sV130.149.80.199
p227
VEFGHRSDV
p228
sV130.180.111.194
p229
VFGRSDV
p230
sV130.185.250.214
p231
VFGHRSDV
p232
sV130.185.250.3
p233
VFGHRSDV
p234
sV130.193.15.186
p235
VFGHRSDV
p236
sV130.193.15.49
p237
VFGRSDV
p238
sV130.225.254.103
p239
VFGHRSDV
p240
sV130.89.149.57
p241
VFGHRSDV
p242
sV131.188.40.188
p243
VFGHRSDV
p244
sV132.248.241.5
p245
VFGHRSDV
p246
sV132.252.186.185
p247
VFGHRSDV
p248
sV134.102.200.101
p249
VFGHRSDV
p250
sV134.119.32.208
p251
VFGRSDV
p252
sV134.130.172.229
p253
VFGHRSDV
p254
sV134.130.181.212
p255
VFGHRSDV
p256
sV134.130.181.43
p257
VFGHRSDV
p258
sV134.19.177.109
p259
VFGHRSDV
p260
sV134.209.195.247
p261
VFGHRSDV
p262
sV134.249.231.207
p263
VFGHRSDV
p264
sV134.3.45.176
p265
VFGHRSDV
p266
sV134.34.231.158
p267
VFGHRSDV
p268
sV136.243.101.164
p269
VFGHRSDV
p270
sV136.243.131.29
p271
VFGHRSDV
p272
sV136.243.149.82
p273
VFGHRSDV
p274
sV136.243.176.148
p275
VFGHRSDV
p276
sV136.243.243.6
p277
VFGHRSDV
p278
sV136.243.247.88
p279
VFGRSDV
p280
sV136.243.247.89
p281
VFGRSDV
p282
sV136.243.247.90
p283
VFGRSDV
p284
sV136.243.36.212
p285
VFGHRSDV
p286
sV136.243.39.148
p287
VFGHRSDV
p288
sV136.243.4.139
p289
VFGHRSDV
p290
sV136.243.69.205
p291
VFGHRSDV
p292
sV136.243.70.198
p293
VFGRSDV
p294
sV136.243.82.132
p295
VFGHRSDV
p296
sV136.27.44.53
p297
VFGHRSDV
p298
sV136.49.135.238
p299
VFGHRSDV
p300
sV137.226.111.123
p301
VFGRSDV
p302
sV137.74.112.46
p303
VFGHRSDV
p304
sV137.74.116.214
p305
VFGHRSDV
p306
sV137.74.167.96
p307
VEFGHRSDV
p308
sV137.74.169.241
p309
VEFGHRSDV
p310
sV137.74.189.95
p311
VFGHRSDV
p312
sV137.74.19.201
p313
VFGHRSDV
p314
sV137.74.19.202
p315
VFGHRSDV
p316
sV137.74.193.226
p317
VFGHRSDV
p318
sV137.74.198.250
p319
VFGHRSDV
p320
sV137.74.25.175
p321
VFGHRSDV
p322
sV137.74.40.76
p323
VFGHRSDV
p324
sV138.197.152.227
p325
VFGHRSDV
p326
sV138.197.177.62
p327
VEFGHRSDV
p328
sV138.197.202.35
p329
VFGRSDV
p330
sV138.197.209.248
p331
VFGHRSDV
p332
sV138.201.122.55
p333
VFGHRSDV
p334
sV138.201.143.186
p335
VFGHRSDV
p336
sV138.201.169.12
p337
VFGHRSDV
p338
sV138.201.250.33
p339
VFGHRSDV
p340
sV138.201.254.83
p341
VFGHRSDV
p342
sV138.201.3.75
p343
VFGHRSDV
p344
sV138.201.83.171
p345
VFGRSDV
p346
sV138.246.18.221
p347
VFGHRSDV
p348
sV138.59.18.106
p349
VFGHRSDV
p350
sV138.59.18.110
p351
VEFGHRSDV
p352
sV138.68.132.48
p353
VFGHRSDV
p354
sV138.68.253.48
p355
VFGHRSDV
p356
sV139.162.176.105
p357
VFGHRSDV
p358
sV139.162.210.252
p359
VFGHRSDV
p360
sV139.30.255.200
p361
VFGRSDV
p362
sV139.99.98.191
p363
VEFGHRSDV
p364
sV140.82.13.25
p365
VFGHRSDV
p366
sV141.105.67.58
p367
VFGHRSDV
p368
sV141.14.220.177
p369
VFGHRSDV
p370
sV141.255.161.166
p371
VFGHRSDV
p372
sV141.255.161.167
p373
VFGHRSDV
p374
sV141.255.165.102
p375
VFGHRSDV
p376
sV141.255.166.142
p377
VFGHRSDV
p378
sV141.255.166.150
p379
VFGHRSDV
p380
sV141.255.166.189
p381
VFGRSDV
p382
sV141.51.125.16
p383
VFGHRSDV
p384
sV141.70.125.15
p385
VFGHRSDV
p386
sV142.112.185.175
p387
VFGHRSDV
p388
sV142.4.209.31
p389
VFGHRSDV
p390
sV142.44.133.83
p391
VEFGHRSDV
p392
sV142.44.184.90
p393
VFGRSDV
p394
sV142.44.243.133
p395
VFGHRSDV
p396
sV142.44.243.241
p397
VFGHRSDV
p398
sV142.44.247.102
p399
VFGHRSDV
p400
sV142.54.162.114
p401
VFGHRSDV
p402
sV142.93.169.197
p403
VFGHRSDV
p404
sV142.93.232.80
p405
VFGRSDV
p406
sV144.202.49.171
p407
VFGHRSDV
p408
sV144.202.63.243
p409
VFGHRSDV
p410
sV144.208.96.3
p411
VFGHRSDV
p412
sV144.217.13.141
p413
VFGHRSDV
p414
sV144.217.15.164
p415
VFGHRSDV
p416
sV144.217.164.104
p417
VEFGHRSDV
p418
sV144.217.165.133
p419
VEFGHRSDV
p420
sV144.217.165.223
p421
VEFGHRSDV
p422
sV144.217.166.19
p423
VEFGHRSDV
p424
sV144.217.166.26
p425
VEFGHRSDV
p426
sV144.217.166.59
p427
VEFGHRSDV
p428
sV144.217.167.69
p429
VFGHRSDV
p430
sV144.217.176.151
p431
VFGHRSDV
p432
sV144.217.189.131
p433
VFGHRSDV
p434
sV144.217.255.89
p435
VEFGHRSDV
p436
sV144.217.4.166
p437
VFGHRSDV
p438
sV144.217.60.211
p439
VEFGRSDV
p440
sV144.217.60.239
p441
VEFGRSDV
p442
sV144.217.7.136
p443
VFGHRSDV
p444
sV144.217.7.154
p445
VEFGHRSDV
p446
sV144.217.7.33
p447
VEFGHRSDV
p448
sV144.217.85.34
p449
VFGHRSDV
p450
sV144.217.90.68
p451
VEFGHRSDV
p452
sV144.217.92.215
p453
VFGHRSDV
p454
sV144.217.94.84
p455
VFGHRSDV
p456
sV144.217.95.12
p457
VFGHRSDV
p458
sV144.76.105.169
p459
VFGHRSDV
p460
sV144.76.107.124
p461
VFGHRSDV
p462
sV144.76.107.88
p463
VFGHRSDV
p464
sV144.76.118.86
p465
VFGHRSDV
p466
sV144.76.143.137
p467
VFGHRSDV
p468
sV144.76.165.201
p469
VFGHRSDV
p470
sV144.76.168.36
p471
VFGHRSDV
p472
sV144.76.175.205
p473
VFGHRSDV
p474
sV144.76.196.92
p475
VFGHRSDV
p476
sV144.76.197.43
p477
VFGHRSDV
p478
sV144.76.24.130
p479
VFGHRSDV
p480
sV144.76.37.242
p481
VFGHRSDV
p482
sV144.76.50.37
p483
VFGHRSDV
p484
sV144.76.57.165
p485
VFGHRSDV
p486
sV144.76.58.23
p487
VFGHRSDV
p488
sV144.76.61.209
p489
VFGHRSDV
p490
sV144.76.71.91
p491
VFGHRSDV
p492
sV144.76.75.137
p493
VFGHRSDV
p494
sV144.76.78.60
p495
VFGHRSDV
p496
sV144.76.79.84
p497
VFGHRSDV
p498
sV144.76.91.135
p499
VFGHRSDV
p500
sV144.76.91.184
p501
VFGHRSDV
p502
sV144.76.91.46
p503
VFGHRSDV
p504
sV144.76.96.6
p505
VFGHRSDV
p506
sV144.76.96.7
p507
VFGHRSDV
p508
sV145.108.189.62
p509
VFGHRSDV
p510
sV145.132.191.48
p511
VFGHRSDV
p512
sV145.220.0.15
p513
VFGHRSDV
p514
sV145.239.0.204
p515
VFGHRSDV
p516
sV145.239.1.97
p517
VFGHRSDV
p518
sV145.239.169.62
p519
VFGHRSDV
p520
sV145.239.255.86
p521
VFGHRSDV
p522
sV145.239.28.159
p523
VFGHRSDV
p524
sV145.239.6.188
p525
VFGHRSDV
p526
sV145.239.6.189
p527
VFGHRSDV
p528
sV145.239.66.236
p529
VFGHRSDV
p530
sV145.239.7.168
p531
VFGHRSDV
p532
sV145.239.7.169
p533
VFGHRSDV
p534
sV145.239.7.170
p535
VFGHRSDV
p536
sV145.239.72.73
p537
VFGRSDV
p538
sV145.239.76.11
p539
VFGHRSDV
p540
sV145.239.85.117
p541
VFGHRSDV
p542
sV145.239.85.208
p543
VFGHRSDV
p544
sV145.239.91.37
p545
VEFGHRSDV
p546
sV145.239.94.162
p547
VEFGHRSDV
p548
sV146.0.138.153
p549
VFGHRSDV
p550
sV146.0.40.126
p551
VFGRSDV
p552
sV146.0.77.50
p553
VFGHRSDV
p554
sV146.185.189.197
p555
VFGHRSDV
p556
sV146.185.253.101
p557
VFGHRSDV
p558
sV147.135.209.234
p559
VFGHRSDV
p560
sV147.135.245.68
p561
VFGHRSDV
p562
sV147.135.36.62
p563
VFGHRSDV
p564
sV147.135.4.38
p565
VFGHRSDV
p566
sV147.135.4.68
p567
VFGHRSDV
p568
sV147.135.6.69
p569
VFGHRSDV
p570
sV147.175.187.143
p571
VFGHRSDV
p572
sV147.92.88.67
p573
VFGHRSDV
p574
sV148.247.186.73
p575
VFGHRSDV
p576
sV148.251.11.21
p577
VFGHRSDV
p578
sV148.251.165.250
p579
VFGHRSDV
p580
sV148.251.165.251
p581
VFGRSDV
p582
sV148.251.190.229
p583
VFGHRSDV
p584
sV148.251.193.183
p585
VFGHRSDV
p586
sV148.251.193.186
p587
VFGHRSDV
p588
sV148.251.221.163
p589
VFGHRSDV
p590
sV148.251.3.114
p591
VFGHRSDV
p592
sV148.251.51.66
p593
VFGHRSDV
p594
sV148.253.182.142
p595
VFGHRSDV
p596
sV148.76.1.7
p597
VFGHRSDV
p598
sV149.154.154.155
p599
VFGHRSDV
p600
sV149.154.67.50
p601
VFGRSDV
p602
sV149.202.170.60
p603
VEFGHRSDV
p604
sV149.202.190.14
p605
VFGHRSDV
p606
sV149.202.238.204
p607
VEFGHRSDV
p608
sV149.56.101.31
p609
VFGHRSDV
p610
sV149.56.130.157
p611
VFGRSDV
p612
sV149.56.141.138
p613
VFGHRSDV
p614
sV149.56.141.15
p615
VFGRSDV
p616
sV149.56.157.119
p617
VFGHRSDV
p618
sV149.56.185.56
p619
VFGRSDV
p620
sV149.56.233.142
p621
VFGHRSDV
p622
sV149.56.25.84
p623
VFGHRSDV
p624
sV149.56.44.47
p625
VEFGHRSDV
p626
sV149.56.45.200
p627
VFGHRSDV
p628
sV149.56.98.216
p629
VFGHRSDV
p630
sV151.196.118.239
p631
VFGHRSDV
p632
sV151.236.218.107
p633
VFGHRSDV
p634
sV151.64.45.226
p635
VFGHRSDV
p636
sV151.80.115.180
p637
VFGHRSDV
p638
sV151.80.147.153
p639
VFGHRSDV
p640
sV151.80.44.177
p641
VFGHRSDV
p642
sV153.92.126.234
p643
VFGHRSDV
p644
sV153.92.127.239
p645
VFGHRSDV
p646
sV154.59.112.41
p647
VFGHRSDV
p648
sV154.59.112.69
p649
VFGHRSDV
p650
sV154.59.112.72
p651
VFGHRSDV
p652
sV155.4.117.217
p653
VFGRSDV
p654
sV155.4.70.138
p655
VFGHRSDV
p656
sV157.131.154.230
p657
VFGHRSDV
p658
sV157.22.22.254
p659
VFGRSDV
p660
sV158.174.122.199
p661
VEFGRSDV
p662
sV158.174.255.246
p663
VFGHRSDV
p664
sV158.255.1.112
p665
VFGHRSDV
p666
sV158.255.7.61
p667
VFGHRSDVX
p668
sV158.58.170.183
p669
VFGHRSDV
p670
sV158.58.173.78
p671
VFGHRSDV
p672
sV158.69.112.129
p673
VFGHRSDV
p674
sV158.69.16.124
p675
VFGHRSDV
p676
sV158.69.192.200
p677
VEFGHRSDV
p678
sV158.69.192.239
p679
VEFGHRSDV
p680
sV158.69.193.32
p681
VEFGHRSDV
p682
sV158.69.198.177
p683
VFGHRSDV
p684
sV158.69.201.47
p685
VEFGHRSDV
p686
sV158.69.204.36
p687
VFGHRSDV
p688
sV158.69.205.247
p689
VFGHRSDV
p690
sV158.69.205.92
p691
VFGHRSDV
p692
sV158.69.207.216
p693
VFGRSDV
p694
sV158.69.212.100
p695
VFGHRSDVX
p696
sV158.69.212.106
p697
VFGHRSDVX
p698
sV158.69.212.107
p699
VFGHRSDVX
p700
sV158.69.212.109
p701
VFGHRSDVX
p702
sV158.69.212.99
p703
VFGHRSDVX
p704
sV158.69.217.248
p705
VEFGHRSDV
p706
sV158.69.217.87
p707
VEFGHRSDV
p708
sV158.69.222.10
p709
VFGHRSDV
p710
sV158.69.222.218
p711
VFGHRSDV
p712
sV158.69.30.132
p713
VFGHRSDV
p714
sV158.69.30.133
p715
VFGHRSDV
p716
sV158.69.37.14
p717
VEFGHRSDV
p718
sV158.69.63.54
p719
VFGHRSDV
p720
sV158.69.92.127
p721
VFGHRSDV
p722
sV159.203.45.171
p723
VFGHRSDV
p724
sV159.69.114.110
p725
VFGRSDV
p726
sV159.69.184.172
p727
VFGHRSDV
p728
sV159.69.207.20
p729
VFGHRSDV
p730
sV159.69.21.196
p731
VFGHRSDV
p732
sV159.69.27.103
p733
VFGHRSDV
p734
sV159.89.125.103
p735
VEFGHRSDV
p736
sV160.119.253.114
p737
VEFGHRSDV
p738
sV161.53.160.104
p739
VFGHRSDV
p740
sV162.213.3.221
p741
VEFGHRSDV
p742
sV162.216.152.36
p743
VFGHRSDV
p744
sV162.243.156.105
p745
VFGHRSDV
p746
sV162.244.80.228
p747
VEFGHRSDV
p748
sV162.247.73.192
p749
VEFGRSDV
p750
sV162.247.74.199
p751
VEFGHRSDV
p752
sV162.247.74.200
p753
VEFGHRSDV
p754
sV162.247.74.201
p755
VEFGHRSDV
p756
sV162.247.74.202
p757
VEFGHRSDV
p758
sV162.247.74.204
p759
VEFGHRSDV
p760
sV162.247.74.206
p761
VEFGHRSDV
p762
sV162.247.74.213
p763
VEFGHRSDV
p764
sV162.247.74.216
p765
VEFGHRSDV
p766
sV162.247.74.217
p767
VEFGHRSDV
p768
sV162.247.74.27
p769
VEFGHRSDV
p770
sV162.247.74.7
p771
VEFGHRSDV
p772
sV162.247.74.74
p773
VEFGHRSDV
p774
sV162.247.75.118
p775
VFGHRSDV
p776
sV162.255.84.248
p777
VFGRSDV
p778
sV163.172.104.221
p779
VFGHRSDV
p780
sV163.172.11.137
p781
VFGHRSDV
p782
sV163.172.11.141
p783
VFGHRSDV
p784
sV163.172.132.167
p785
VFGHRSDV
p786
sV163.172.133.54
p787
VFGHRSDV
p788
sV163.172.139.104
p789
VFGHRSDV
p790
sV163.172.14.221
p791
VFGHRSDV
p792
sV163.172.141.10
p793
VFGHRSDV
p794
sV163.172.142.92
p795
VFGHRSDV
p796
sV163.172.146.92
p797
VFGHRSDV
p798
sV163.172.147.53
p799
VFGHRSDV
p800
sV163.172.149.122
p801
VFGHRSDV
p802
sV163.172.149.155
p803
VFGHRSDV
p804
sV163.172.152.231
p805
VFGHRSDV
p806
sV163.172.154.162
p807
VFGHRSDV
p808
sV163.172.157.213
p809
VFGHRSDV
p810
sV163.172.159.135
p811
VFGHRSDV
p812
sV163.172.167.241
p813
VFGHRSDV
p814
sV163.172.169.253
p815
VFGRSDV
p816
sV163.172.176.167
p817
VFGHRSDV
p818
sV163.172.182.147
p819
VFGHRSDV
p820
sV163.172.191.108
p821
VFGHRSDV
p822
sV163.172.194.53
p823
VFGHRSDV
p824
sV163.172.209.161
p825
VFGHRSDV
p826
sV163.172.21.117
p827
VFGRSDV
p828
sV163.172.210.167
p829
VFGHRSDV
p830
sV163.172.211.112
p831
VFGHRSDV
p832
sV163.172.211.118
p833
VFGHRSDV
p834
sV163.172.211.128
p835
VFGHRSDV
p836
sV163.172.211.38
p837
VFGHRSDV
p838
sV163.172.211.40
p839
VFGHRSDV
p840
sV163.172.213.201
p841
VFGHRSDV
p842
sV163.172.216.178
p843
VFGHRSDV
p844
sV163.172.221.204
p845
VEFGHRSDV
p846
sV163.172.25.118
p847
VFGHRSDV
p848
sV163.172.27.62
p849
VFGHRSDV
p850
sV163.172.4.100
p851
VFGHRSDV
p852
sV163.172.41.228
p853
VEFGHRSDV
p854
sV163.172.42.239
p855
VFGHRSDV
p856
sV163.172.47.34
p857
VFGHRSDV
p858
sV163.172.53.201
p859
VFGRSDV
p860
sV163.172.53.84
p861
VFGRSDV
p862
sV163.172.56.248
p863
VFGHRSDV
p864
sV163.172.61.78
p865
VFGHRSDV
p866
sV163.172.85.155
p867
VFGHRSDV
p868
sV163.172.86.42
p869
VFGHRSDV
p870
sV163.172.90.128
p871
VFGHRSDV
p872
sV163.172.94.119
p873
VFGHRSDV
p874
sV164.132.226.30
p875
VFGHRSDV
p876
sV164.132.228.61
p877
VFGHRSDV
p878
sV164.132.51.91
p879
VEFGHRSDV
p880
sV165.22.137.39
p881
VFGHRSDV
p882
sV166.70.207.2
p883
VEFGRSDV
p884
sV167.114.113.134
p885
VFGHRSDV
p886
sV167.114.144.152
p887
VFGHRSDV
p888
sV167.114.181.152
p889
VEFGHRSDV
p890
sV167.114.185.246
p891
VFGHRSDVX
p892
sV167.114.219.61
p893
VFGHRSDV
p894
sV167.114.244.112
p895
VFGHRSDV
p896
sV167.114.35.102
p897
VFGHRSDV
p898
sV167.114.35.107
p899
VFGHRSDV
p900
sV167.114.96.9
p901
VFGHRSDV
p902
sV167.86.113.35
p903
VFGHRSDV
p904
sV167.86.93.74
p905
VFGHRSDV
p906
sV167.86.94.107
p907
VEFGHRSDV
p908
sV167.99.42.89
p909
VEFGRSDV
p910
sV167.99.45.146
p911
VFGHRSDV
p912
sV169.197.112.26
p913
VEFGHRSDV
p914
sV171.25.193.139
p915
VFGHRSDV
p916
sV171.25.193.20
p917
VEFGHRSDV
p918
sV171.25.193.235
p919
VEFGHRSDV
p920
sV171.25.193.25
p921
VEFGHRSDV
p922
sV171.25.193.77
p923
VEFGHRSDV
p924
sV171.25.193.78
p925
VEFGHRSDV
p926
sV172.104.138.137
p927
VFGHRSDV
p928
sV172.104.157.65
p929
VFGHRSDV
p930
sV172.104.208.190
p931
VFGHRSDV
p932
sV172.105.26.8
p933
VFGRSDV
p934
sV172.107.96.70
p935
VFGHRSDV
p936
sV172.223.46.254
p937
VFGHRSDV
p938
sV172.241.140.26
p939
VFGHRSDV
p940
sV172.86.144.15
p941
VFGHRSDV
p942
sV172.86.144.59
p943
VFGHRSDV
p944
sV172.86.148.10
p945
VFGHRSDV
p946
sV172.92.156.32
p947
VFGHRSDV
p948
sV172.96.118.14
p949
VEFGHRSDV
p950
sV172.98.193.43
p951
VEFGHRSDV
p952
sV172.98.77.212
p953
VFGHRSDV
p954
sV173.14.173.227
p955
VEFGHRSDV
p956
sV173.180.48.155
p957
VFGRSDVX
p958
sV173.199.70.185
p959
VFGHRSDVX
p960
sV173.208.245.132
p961
VFGHRSDV
p962
sV173.212.199.160
p963
VFGRSDV
p964
sV173.212.200.241
p965
VFGHRSDV
p966
sV173.212.226.76
p967
VFGRSDV
p968
sV173.212.239.129
p969
VFGHRSDV
p970
sV173.212.244.108
p971
VFGHRSDV
p972
sV173.212.253.172
p973
VFGHRSDV
p974
sV173.212.254.192
p975
VFGRSDV
p976
sV173.213.108.116
p977
VFGHRSDV
p978
sV173.230.158.85
p979
VFGHRSDV
p980
sV173.244.209.5
p981
VEFGHRSDV
p982
sV173.249.12.67
p983
VFGHRSDV
p984
sV173.249.19.206
p985
VFGHRSDV
p986
sV173.249.2.224
p987
VFGHRSDV
p988
sV173.249.25.217
p989
VFGHRSDV
p990
sV173.249.3.81
p991
VFGHRSDV
p992
sV173.249.32.194
p993
VFGHRSDV
p994
sV173.249.44.27
p995
VFGHRSDV
p996
sV173.249.5.31
p997
VFGHRSDV
p998
sV173.249.57.253
p999
VFGHRSDV
p1000
sV173.255.192.219
p1001
VEFGHRSDV
p1002
sV173.255.205.113
p1003
VFGHRSDV
p1004
sV173.255.237.70
p1005
VFGHRSDV
p1006
sV173.255.250.219
p1007
VFGHRSDV
p1008
sV173.48.207.241
p1009
VFGRSDV
p1010
sV173.67.20.242
p1011
VFGRSDV
p1012
sV173.71.141.89
p1013
VFGHRSDV
p1014
sV173.73.86.206
p1015
VFGHRSDV
p1016
sV174.127.172.185
p1017
VFGHRSDV
p1018
sV174.136.98.114
p1019
VFGRSDV
p1020
sV174.141.200.41
p1021
VFGHRSDV
p1022
sV176.10.104.240
p1023
VEFGHRSDV
p1024
sV176.10.107.180
p1025
VEFGHRSDV
p1026
sV176.107.181.120
p1027
VFGHRSDV
p1028
sV176.12.22.92
p1029
VFGRSDV
p1030
sV176.122.134.5
p1031
VFGRSDV
p1032
sV176.126.242.49
p1033
VFGHRSDV
p1034
sV176.158.236.102
p1035
VFGRSDV
p1036
sV176.159.39.28
p1037
VFGHRSDV
p1038
sV176.165.28.165
p1039
VFGHRSDV
p1040
sV176.166.235.214
p1041
VFGHRSDV
p1042
sV176.198.219.108
p1043
VFGHRSDV
p1044
sV176.31.103.150
p1045
VFGHRSDV
p1046
sV176.31.132.77
p1047
VFGRSDV
p1048
sV176.31.163.89
p1049
VFGHRSDV
p1050
sV176.31.229.76
p1051
VFGHRSDV
p1052
sV176.31.35.149
p1053
VFGHRSDV
p1054
sV176.31.43.51
p1055
VFGRSDV
p1056
sV176.31.45.3
p1057
VFGHRSDV
p1058
sV176.32.33.221
p1059
VFGHRSDV
p1060
sV176.53.22.142
p1061
VFGHRSDV
p1062
sV176.53.90.26
p1063
VEFGRSDV
p1064
sV176.57.79.249
p1065
VFGHRSDV
p1066
sV176.67.168.210
p1067
VFGHRSDVX
p1068
sV176.67.169.254
p1069
VFGRSDV
p1070
sV176.9.145.81
p1071
VFGHRSDV
p1072
sV176.9.154.247
p1073
VFGHRSDV
p1074
sV176.9.197.4
p1075
VFGHRSDV
p1076
sV176.9.201.174
p1077
VFGHRSDV
p1078
sV176.9.208.12
p1079
VFGHRSDV
p1080
sV176.9.28.164
p1081
VFGRSDV
p1082
sV176.9.38.38
p1083
VFGHRSDV
p1084
sV176.9.39.196
p1085
VFGHRSDV
p1086
sV176.9.39.218
p1087
VFGRSDV
p1088
sV176.9.40.131
p1089
VFGHRSDV
p1090
sV176.9.44.232
p1091
VFGHRSDV
p1092
sV176.9.46.72
p1093
VFGHRSDV
p1094
sV176.9.48.14
p1095
VFGHRSDV
p1096
sV176.9.53.58
p1097
VFGHRSDV
p1098
sV176.9.54.3
p1099
VFGHRSDV
p1100
sV176.9.75.110
p1101
VFGHRSDV
p1102
sV176.9.81.252
p1103
VFGHRSDV
p1104
sV176.9.92.102
p1105
VFGHRSDV
p1106
sV176.9.92.184
p1107
VFGHRSDV
p1108
sV178.0.140.196
p1109
VFGHRSDV
p1110
sV178.128.52.46
p1111
VEFGHRSDV
p1112
sV178.132.0.6
p1113
VFGHRSDV
p1114
sV178.132.78.148
p1115
VFGHRSDV
p1116
sV178.151.255.60
p1117
VFGHRSDV
p1118
sV178.159.0.38
p1119
VFGHRSDV
p1120
sV178.16.135.77
p1121
VFGHRSDV
p1122
sV178.162.194.210
p1123
VFGHRSDV
p1124
sV178.165.72.177
p1125
VEFGRSDV
p1126
sV178.17.170.103
p1127
VFGHRSDV
p1128
sV178.17.170.105
p1129
VEFGHRSDV
p1130
sV178.17.170.112
p1131
VEFGHRSDV
p1132
sV178.17.170.117
p1133
VEFGHRSDV
p1134
sV178.17.170.135
p1135
VEFGHRSDV
p1136
sV178.17.170.149
p1137
VFGHRSDVX
p1138
sV178.17.170.164
p1139
VEFGHRSDV
p1140
sV178.17.170.194
p1141
VEFGHRSDV
p1142
sV178.17.170.196
p1143
VEFGHRSDV
p1144
sV178.17.170.23
p1145
VEFGHRSDV
p1146
sV178.17.170.77
p1147
VFGHRSDV
p1148
sV178.17.170.91
p1149
VEFGHRSDV
p1150
sV178.17.171.102
p1151
VEFGRSDV
p1152
sV178.17.171.114
p1153
VEFGHRSDV
p1154
sV178.17.171.115
p1155
VFGHRSDV
p1156
sV178.17.171.197
p1157
VEFGRSDV
p1158
sV178.17.171.39
p1159
VEFGHRSDV
p1160
sV178.17.174.10
p1161
VEFGHRSDV
p1162
sV178.17.174.14
p1163
VEFGHRSDV
p1164
sV178.17.174.188
p1165
VFGHRSDV
p1166
sV178.17.174.196
p1167
VEFGHRSDV
p1168
sV178.17.174.198
p1169
VEFGHRSDV
p1170
sV178.17.174.2
p1171
VFGHRSDV
p1172
sV178.17.174.211
p1173
VEFGHRSDV
p1174
sV178.17.174.229
p1175
VEFGHRSDV
p1176
sV178.17.174.232
p1177
VEFGRSDV
p1178
sV178.17.174.239
p1179
VFGHRSDV
p1180
sV178.17.174.68
p1181
VEFGRSDV
p1182
sV178.175.129.90
p1183
VFGRSDV
p1184
sV178.175.131.194
p1185
VEFGRSDV
p1186
sV178.175.132.225
p1187
VEFGHRSDV
p1188
sV178.175.132.226
p1189
VEFGHRSDV
p1190
sV178.175.132.227
p1191
VEFGHRSDV
p1192
sV178.175.132.228
p1193
VEFGHRSDV
p1194
sV178.175.132.229
p1195
VEFGHRSDV
p1196
sV178.175.132.230
p1197
VEFGHRSDV
p1198
sV178.175.135.100
p1199
VEFGHRSDV
p1200
sV178.175.135.101
p1201
VEFGHRSDV
p1202
sV178.175.135.102
p1203
VEFGHRSDV
p1204
sV178.175.135.99
p1205
VEFGHRSDV
p1206
sV178.175.143.163
p1207
VEFGHRSDV
p1208
sV178.175.143.164
p1209
VEFGHRSDV
p1210
sV178.175.143.165
p1211
VEFGHRSDV
p1212
sV178.175.143.166
p1213
VEFGHRSDV
p1214
sV178.175.144.138
p1215
VFGHRSDV
p1216
sV178.175.148.161
p1217
VFGHRSDV
p1218
sV178.175.148.165
p1219
VEFGHRSDV
p1220
sV178.175.148.224
p1221
VEFGHRSDV
p1222
sV178.175.148.227
p1223
VEFGHRSDV
p1224
sV178.175.148.34
p1225
VEFGHRSDV
p1226
sV178.18.122.109
p1227
VFGHRSDV
p1228
sV178.20.55.18
p1229
VEFGHRSDV
p1230
sV178.211.45.18
p1231
VFGHRSDVX
p1232
sV178.238.224.97
p1233
VFGHRSDV
p1234
sV178.238.225.88
p1235
VFGRSDV
p1236
sV178.238.225.9
p1237
VFGHRSDV
p1238
sV178.238.227.150
p1239
VFGHRSDV
p1240
sV178.239.176.73
p1241
VEFGHRSDV
p1242
sV178.254.2.158
p1243
VFGHRSDV
p1244
sV178.254.31.125
p1245
VFGHRSDV
p1246
sV178.254.35.99
p1247
VFGHRSDV
p1248
sV178.254.38.79
p1249
VFGRSDV
p1250
sV178.254.40.158
p1251
VFGHRSDV
p1252
sV178.254.7.88
p1253
VFGHRSDV
p1254
sV178.254.9.25
p1255
VFGHRSDV
p1256
sV178.32.147.150
p1257
VEFGHRSDV
p1258
sV178.32.181.96
p1259
VEFGHRSDV
p1260
sV178.32.181.97
p1261
VEFGHRSDV
p1262
sV178.32.181.98
p1263
VEFGHRSDV
p1264
sV178.32.181.99
p1265
VEFGHRSDV
p1266
sV178.32.189.88
p1267
VFGRSDV
p1268
sV178.32.220.61
p1269
VFGHRSDV
p1270
sV178.32.221.207
p1271
VFGHRSDV
p1272
sV178.32.222.185
p1273
VFGHRSDV
p1274
sV178.32.223.22
p1275
VFGHRSDV
p1276
sV178.32.47.140
p1277
VFGHRSDV
p1278
sV178.33.183.251
p1279
VFGHRSDV
p1280
sV178.62.252.82
p1281
VFGHRSDV
p1282
sV178.62.86.206
p1283
VFGHRSDV
p1284
sV178.63.138.17
p1285
VFGHRSDV
p1286
sV178.63.172.13
p1287
VFGHRSDV
p1288
sV178.63.172.14
p1289
VFGHRSDV
p1290
sV178.63.25.10
p1291
VFGHRSDV
p1292
sV178.63.47.104
p1293
VFGHRSDV
p1294
sV178.63.69.254
p1295
VFGHRSDV
p1296
sV178.63.72.24
p1297
VFGHRSDV
p1298
sV178.63.97.34
p1299
VFGHRSDVX
p1300
sV178.78.192.88
p1301
VFGHRSDV
p1302
sV178.78.192.89
p1303
VFGHRSDV
p1304
sV178.78.213.214
p1305
VFGRSDV
p1306
sV178.78.241.182
p1307
VFGHRSDV
p1308
sV178.79.161.177
p1309
VFGHRSDV
p1310
sV178.79.165.21
p1311
VFGHRSDV
p1312
sV178.82.241.4
p1313
VFGHRSDV
p1314
sV178.85.3.116
p1315
VFGHRSDV
p1316
sV179.43.146.230
p1317
VFGHRSDVX
p1318
sV179.43.156.214
p1319
VFGHRSDV
p1320
sV179.43.158.176
p1321
VFGHRSDV
p1322
sV179.43.158.7
p1323
VFGHRSDV
p1324
sV179.43.169.21
p1325
VFGHRSDV
p1326
sV179.48.251.188
p1327
VEFGHRSDV
p1328
sV18.18.248.17
p1329
VEFGHRSDV
p1330
sV18.49.5.37
p1331
VFGHRSDV
p1332
sV18.85.192.253
p1333
VEFGHRSDV
p1334
sV185.10.68.123
p1335
VFGHRSDVX
p1336
sV185.10.68.37
p1337
VEFGHRSDV
p1338
sV185.10.68.85
p1339
VFGHRSDV
p1340
sV185.100.84.212
p1341
VFGHRSDV
p1342
sV185.100.84.251
p1343
VFGHRSDV
p1344
sV185.100.85.101
p1345
VEFGHRSDV
p1346
sV185.100.85.132
p1347
VFGHRSDVX
p1348
sV185.100.85.175
p1349
VFGHRSDV
p1350
sV185.100.85.61
p1351
VEFGRSDV
p1352
sV185.100.86.100
p1353
VEFGRSDV
p1354
sV185.100.86.128
p1355
VEFGHRSDV
p1356
sV185.100.86.154
p1357
VEFGHRSDV
p1358
sV185.100.86.182
p1359
VEFGRSDV
p1360
sV185.100.87.207
p1361
VEFGHRSDV
p1362
sV185.101.98.108
p1363
VFGHRSDV
p1364
sV185.103.110.144
p1365
VFGHRSDV
p1366
sV185.103.110.248
p1367
VFGHRSDV
p1368
sV185.103.135.19
p1369
VFGHRSDV
p1370
sV185.107.70.202
p1371
VEFGHRSDV
p1372
sV185.107.71.41
p1373
VFGHRSDV
p1374
sV185.107.81.194
p1375
VFGHRSDV
p1376
sV185.107.83.1
p1377
VFGRSDV
p1378
sV185.107.83.71
p1379
VEFGHRSDV
p1380
sV185.107.94.183
p1381
VFGHRSDV
p1382
sV185.107.94.233
p1383
VFGHRSDV
p1384
sV185.109.91.126
p1385
VFGRSDV
p1386
sV185.112.146.179
p1387
VFGHRSDV
p1388
sV185.112.157.135
p1389
VFGRSDV
p1390
sV185.112.254.195
p1391
VFGHRSDVX
p1392
sV185.112.82.50
p1393
VFGHRSDV
p1394
sV185.117.118.132
p1395
VFGHRSDV
p1396
sV185.117.118.59
p1397
VFGHRSDV
p1398
sV185.117.215.9
p1399
VEFGHRSDV
p1400
sV185.117.82.23
p1401
VFGHRSDV
p1402
sV185.117.82.68
p1403
VFGHRSDV
p1404
sV185.12.6.234
p1405
VFGRSDV
p1406
sV185.125.217.66
p1407
VFGRSDV
p1408
sV185.125.33.114
p1409
VEFGRSDV
p1410
sV185.125.33.58
p1411
VFGHRSDV
p1412
sV185.127.25.192
p1413
VEFGHRSDV
p1414
sV185.129.60.131
p1415
VFGHRSDV
p1416
sV185.129.62.62
p1417
VEFGHRSDV
p1418
sV185.129.62.63
p1419
VEFGHRSDV
p1420
sV185.13.37.252
p1421
VFGHRSDV
p1422
sV185.13.39.197
p1423
VFGHRSDV
p1424
sV185.14.30.57
p1425
VFGHRSDV
p1426
sV185.142.239.172
p1427
VFGHRSDV
p1428
sV185.147.80.155
p1429
VEFGRSDV
p1430
sV185.15.246.243
p1431
VFGHRSDV
p1432
sV185.156.173.148
p1433
VFGRSDV
p1434
sV185.157.161.4
p1435
VFGHRSDV
p1436
sV185.158.251.201
p1437
VEFGHRSDV
p1438
sV185.162.229.116
p1439
VEFGHRSDV
p1440
sV185.162.235.57
p1441
VFGHRSDV
p1442
sV185.163.45.212
p1443
VFGHRSDV
p1444
sV185.163.45.247
p1445
VFGHRSDV
p1446
sV185.163.45.253
p1447
VFGHRSDV
p1448
sV185.163.45.29
p1449
VFGHRSDV
p1450
sV185.163.47.212
p1451
VFGHRSDV
p1452
sV185.165.168.168
p1453
VEFGRSDV
p1454
sV185.165.168.229
p1455
VEFGHRSDV
p1456
sV185.165.169.165
p1457
VEFGHRSDV
p1458
sV185.165.169.71
p1459
VEFGHRSDV
p1460
sV185.165.240.126
p1461
VFGHRSDV
p1462
sV185.165.242.5
p1463
VFGHRSDV
p1464
sV185.169.42.131
p1465
VEFGHRSDV
p1466
sV185.171.130.240
p1467
VFGHRSDV
p1468
sV185.177.151.33
p1469
VFGRSDV
p1470
sV185.181.229.77
p1471
VFGHRSDV
p1472
sV185.189.112.162
p1473
VFGHRSDV
p1474
sV185.191.204.254
p1475
VFGHRSDVX
p1476
sV185.193.125.42
p1477
VEFGRSDV
p1478
sV185.198.26.149
p1479
VFGHRSDV
p1480
sV185.2.43.84
p1481
VFGRSDV
p1482
sV185.2.43.87
p1483
VFGHRSDV
p1484
sV185.204.1.239
p1485
VFGHRSDV
p1486
sV185.204.3.107
p1487
VFGHRSDV
p1488
sV185.206.145.235
p1489
VFGHRSDV
p1490
sV185.207.205.62
p1491
VFGHRSDV
p1492
sV185.207.205.64
p1493
VFGHRSDV
p1494
sV185.21.100.50
p1495
VFGHRSDV
p1496
sV185.21.216.169
p1497
VFGHRSDV
p1498
sV185.212.149.111
p1499
VFGHRSDV
p1500
sV185.212.149.125
p1501
VFGHRSDV
p1502
sV185.217.0.85
p1503
VFGHRSDV
p1504
sV185.217.93.92
p1505
VFGHRSDV
p1506
sV185.217.95.25
p1507
VFGHRSDV
p1508
sV185.22.153.24
p1509
VFGHRSDV
p1510
sV185.22.172.106
p1511
VFGHRSDV
p1512
sV185.22.172.33
p1513
VFGHRSDV
p1514
sV185.22.172.48
p1515
VFGHRSDV
p1516
sV185.22.174.119
p1517
VFGHRSDV
p1518
sV185.22.174.46
p1519
VFGHRSDV
p1520
sV185.220.100.252
p1521
VEFGHRSDV
p1522
sV185.220.100.253
p1523
VEFGHRSDV
p1524
sV185.220.100.254
p1525
VEFGHRSDV
p1526
sV185.220.100.255
p1527
VEFGHRSDV
p1528
sV185.220.101.0
p1529
VEFGHRSDV
p1530
sV185.220.101.1
p1531
VEFGHRSDV
p1532
sV185.220.101.12
p1533
VEFGHRSDV
p1534
sV185.220.101.13
p1535
VEFGHRSDV
p1536
sV185.220.101.15
p1537
VEFGHRSDV
p1538
sV185.220.101.20
p1539
VEFGHRSDV
p1540
sV185.220.101.21
p1541
VEFGHRSDV
p1542
sV185.220.101.22
p1543
VEFGHRSDV
p1544
sV185.220.101.24
p1545
VEFGHRSDV
p1546
sV185.220.101.25
p1547
VEFGHRSDV
p1548
sV185.220.101.26
p1549
VEFGHRSDV
p1550
sV185.220.101.27
p1551
VEFGHRSDV
p1552
sV185.220.101.28
p1553
VEFGHRSDV
p1554
sV185.220.101.29
p1555
VEFGHRSDV
p1556
sV185.220.101.3
p1557
VEFGHRSDV
p1558
sV185.220.101.30
p1559
VEFGHRSDV
p1560
sV185.220.101.31
p1561
VEFGHRSDV
p1562
sV185.220.101.32
p1563
VEFGHRSDV
p1564
sV185.220.101.33
p1565
VEFGHRSDV
p1566
sV185.220.101.34
p1567
VEFGHRSDV
p1568
sV185.220.101.35
p1569
VEFGHRSDV
p1570
sV185.220.101.44
p1571
VEFGHRSDV
p1572
sV185.220.101.45
p1573
VEFGHRSDV
p1574
sV185.220.101.46
p1575
VEFGHRSDV
p1576
sV185.220.101.48
p1577
VEFGHRSDV
p1578
sV185.220.101.49
p1579
VEFGHRSDV
p1580
sV185.220.101.5
p1581
VEFGHRSDV
p1582
sV185.220.101.50
p1583
VEFGHRSDV
p1584
sV185.220.101.56
p1585
VEFGRSDV
p1586
sV185.220.101.57
p1587
VEFGRSDV
p1588
sV185.220.101.58
p1589
VEFGRSDV
p1590
sV185.220.101.6
p1591
VEFGHRSDV
p1592
sV185.220.101.60
p1593
VEFGHRSDV
p1594
sV185.220.101.61
p1595
VEFGHRSDV
p1596
sV185.220.101.62
p1597
VEFGHRSDV
p1598
sV185.220.101.65
p1599
VEFGRSDV
p1600
sV185.220.101.66
p1601
VEFGRSDV
p1602
sV185.220.101.67
p1603
VEFGRSDV
p1604
sV185.220.101.68
p1605
VEFGHRSDV
p1606
sV185.220.101.69
p1607
VEFGHRSDV
p1608
sV185.220.101.7
p1609
VEFGHRSDV
p1610
sV185.220.101.70
p1611
VEFGHRSDV
p1612
sV185.220.102.4
p1613
VEFGHRSDV
p1614
sV185.220.102.6
p1615
VEFGHRSDV
p1616
sV185.220.102.7
p1617
VEFGHRSDV
p1618
sV185.220.102.8
p1619
VEFGHRSDV
p1620
sV185.222.202.10
p1621
VFGHRSDV
p1622
sV185.222.202.107
p1623
VFGRSDV
p1624
sV185.222.202.65
p1625
VEFGRSDV
p1626
sV185.225.17.151
p1627
VFGHRSDV
p1628
sV185.225.17.173
p1629
VFGHRSDV
p1630
sV185.225.17.3
p1631
VFGRSDV
p1632
sV185.225.17.60
p1633
VFGHRSDV
p1634
sV185.225.17.95
p1635
VFGHRSDV
p1636
sV185.225.68.15
p1637
VFGHRSDV
p1638
sV185.225.69.59
p1639
VFGHRSDV
p1640
sV185.225.69.8
p1641
VFGHRSDV
p1642
sV185.225.69.90
p1643
VFGRSDV
p1644
sV185.225.69.91
p1645
VFGHRSDV
p1646
sV185.227.68.78
p1647
VEFGRSDV
p1648
sV185.227.82.56
p1649
VFGHRSDV
p1650
sV185.227.82.63
p1651
VFGHRSDV
p1652
sV185.227.82.7
p1653
VFGHRSDV
p1654
sV185.227.82.9
p1655
VEFGRSDV
p1656
sV185.228.138.252
p1657
VFGHRSDV
p1658
sV185.232.29.222
p1659
VFGHRSDV
p1660
sV185.233.100.23
p1661
VEFGHRSDV
p1662
sV185.233.104.172
p1663
VFGHRSDV
p1664
sV185.233.106.34
p1665
VFGHRSDV
p1666
sV185.242.113.224
p1667
VEFGHRSDV
p1668
sV185.243.53.222
p1669
VFGHRSDV
p1670
sV185.243.8.74
p1671
VFGHRSDV
p1672
sV185.243.9.150
p1673
VFGHRSDV
p1674
sV185.244.131.100
p1675
VEFGHRSDV
p1676
sV185.244.192.119
p1677
VFGHRSDV
p1678
sV185.244.193.141
p1679
VFGRSDV
p1680
sV185.246.152.22
p1681
VFGHRSDV
p1682
sV185.246.21.9
p1683
VFGHRSDV
p1684
sV185.248.151.143
p1685
VFGHRSDV
p1686
sV185.248.160.21
p1687
VEFGHRSDV
p1688
sV185.248.160.65
p1689
VEFGHRSDV
p1690
sV185.25.118.182
p1691
VFGHRSDV
p1692
sV185.25.50.199
p1693
VFGHRSDV
p1694
sV185.25.51.202
p1695
VFGHRSDV
p1696
sV185.25.51.59
p1697
VFGHRSDV
p1698
sV185.255.112.112
p1699
VEFGHRSDV
p1700
sV185.31.136.244
p1701
VFGHRSDVX
p1702
sV185.32.221.201
p1703
VFGRSDV
p1704
sV185.35.202.221
p1705
VFGHRSDV
p1706
sV185.35.202.222
p1707
VFGHRSDV
p1708
sV185.4.132.135
p1709
VEFGHRSDV
p1710
sV185.4.132.148
p1711
VFGHRSDV
p1712
sV185.4.132.183
p1713
VEFGHRSDV
p1714
sV185.41.154.232
p1715
VFGHRSDV
p1716
sV185.5.248.186
p1717
VFGHRSDV
p1718
sV185.50.191.250
p1719
VFGHRSDV
p1720
sV185.56.171.94
p1721
VEFGHRSDV
p1722
sV185.56.84.38
p1723
VFGHRSDV
p1724
sV185.61.148.142
p1725
VFGRSDV
p1726
sV185.61.148.80
p1727
VFGRSDV
p1728
sV185.61.149.173
p1729
VFGHRSDV
p1730
sV185.61.149.247
p1731
VFGRSDV
p1732
sV185.61.149.67
p1733
VFGRSDV
p1734
sV185.62.188.110
p1735
VFGHRSDV
p1736
sV185.62.57.162
p1737
VFGHRSDV
p1738
sV185.63.253.130
p1739
VFGHRSDV
p1740
sV185.65.205.10
p1741
VEFGHRSDV
p1742
sV185.69.152.251
p1743
VFGHRSDV
p1744
sV185.72.244.24
p1745
VEFGHRSDV
p1746
sV185.72.244.37
p1747
VFGHRSDV
p1748
sV185.72.247.145
p1749
VFGHRSDV
p1750
sV185.73.220.8
p1751
VFGHRSDV
p1752
sV185.77.129.35
p1753
VFGHRSDV
p1754
sV185.8.237.45
p1755
VFGHRSDV
p1756
sV185.8.63.38
p1757
VFGRSDV
p1758
sV185.80.222.164
p1759
VFGHRSDV
p1760
sV185.82.203.209
p1761
VFGHRSDV
p1762
sV185.86.148.90
p1763
VFGRSDVX
p1764
sV185.86.149.85
p1765
VFGRSDV
p1766
sV185.86.150.214
p1767
VFGRSDV
p1768
sV185.86.150.44
p1769
VFGHRSDV
p1770
sV185.86.150.45
p1771
VFGHRSDV
p1772
sV185.86.150.58
p1773
VFGHRSDV
p1774
sV185.86.151.168
p1775
VFGHRSDV
p1776
sV185.86.151.21
p1777
VFGHRSDVX
p1778
sV185.96.180.164
p1779
VFGHRSDV
p1780
sV185.96.180.29
p1781
VFGHRSDV
p1782
sV185.96.88.164
p1783
VFGHRSDV
p1784
sV185.96.88.29
p1785
VFGHRSDV
p1786
sV185.97.32.34
p1787
VFGHRSDV
p1788
sV187.178.75.109
p1789
VEFGHRSDV
p1790
sV188.116.56.55
p1791
VFGRSDV
p1792
sV188.118.217.235
p1793
VFGHRSDV
p1794
sV188.119.151.108
p1795
VFGHRSDV
p1796
sV188.119.67.56
p1797
VFGRSDV
p1798
sV188.120.234.26
p1799
VFGRSDV
p1800
sV188.120.243.32
p1801
VFGRSDV
p1802
sV188.138.102.98
p1803
VFGHRSDV
p1804
sV188.138.112.60
p1805
VFGRSDV
p1806
sV188.138.33.149
p1807
VFGHRSDV
p1808
sV188.138.72.10
p1809
VFGHRSDV
p1810
sV188.138.75.101
p1811
VFGHRSDV
p1812
sV188.165.138.6
p1813
VFGHRSDV
p1814
sV188.165.19.61
p1815
VFGHRSDV
p1816
sV188.165.212.152
p1817
VFGHRSDV
p1818
sV188.165.213.156
p1819
VFGHRSDV
p1820
sV188.165.216.204
p1821
VFGHRSDV
p1822
sV188.165.220.34
p1823
VFGHRSDV
p1824
sV188.165.242.114
p1825
VFGHRSDV
p1826
sV188.165.28.152
p1827
VFGHRSDV
p1828
sV188.165.5.14
p1829
VFGHRSDV
p1830
sV188.166.173.139
p1831
VFGHRSDV
p1832
sV188.166.9.235
p1833
VEFGHRSDV
p1834
sV188.175.77.16
p1835
VFGRSDV
p1836
sV188.195.133.24
p1837
VFGHRSDV
p1838
sV188.195.173.167
p1839
VFGHRSDV
p1840
sV188.209.49.203
p1841
VFGHRSDV
p1842
sV188.213.31.125
p1843
VFGHRSDV
p1844
sV188.213.49.208
p1845
VFGHRSDV
p1846
sV188.213.49.55
p1847
VFGHRSDV
p1848
sV188.214.104.146
p1849
VEFGHRSDV
p1850
sV188.214.129.21
p1851
VFGHRSDV
p1852
sV188.214.132.49
p1853
VFGHRSDV
p1854
sV188.232.60.166
p1855
VFGRSDV
p1856
sV188.243.225.14
p1857
VFGHRSDV
p1858
sV188.244.43.25
p1859
VFGHRSDV
p1860
sV188.32.211.204
p1861
VFGRSDV
p1862
sV188.32.52.16
p1863
VFGHRSDV
p1864
sV188.32.67.107
p1865
VFGHRSDV
p1866
sV188.40.128.246
p1867
VFGHRSDV
p1868
sV188.40.152.137
p1869
VFGHRSDV
p1870
sV188.40.238.144
p1871
VFGHRSDV
p1872
sV188.40.251.238
p1873
VFGHRSDV
p1874
sV188.40.81.198
p1875
VFGHRSDV
p1876
sV188.68.37.135
p1877
VFGHRSDV
p1878
sV188.68.38.54
p1879
VFGHRSDV
p1880
sV188.68.45.180
p1881
VFGHRSDVX
p1882
sV188.68.46.164
p1883
VFGHRSDV
p1884
sV188.68.53.92
p1885
VFGHRSDV
p1886
sV188.82.129.46
p1887
VFGHRSDV
p1888
sV188.93.186.48
p1889
VFGHRSDV
p1890
sV190.10.8.166
p1891
VFGHRSDV
p1892
sV190.2.133.33
p1893
VFGHRSDV
p1894
sV190.2.145.7
p1895
VFGRSDV
p1896
sV191.243.199.42
p1897
VEFGHRSDV
p1898
sV192.124.250.83
p1899
VFGHRSDV
p1900
sV192.160.102.164
p1901
VEFGHRSDV
p1902
sV192.160.102.165
p1903
VEFGHRSDV
p1904
sV192.160.102.166
p1905
VEFGHRSDV
p1906
sV192.160.102.168
p1907
VEFGHRSDV
p1908
sV192.160.102.169
p1909
VEFGHRSDV
p1910
sV192.160.102.170
p1911
VEFGHRSDV
p1912
sV192.162.244.26
p1913
VFGHRSDVX
p1914
sV192.195.80.10
p1915
VEFGHRSDV
p1916
sV192.241.242.189
p1917
VFGHRSDV
p1918
sV192.36.38.33
p1919
VFGHRSDV
p1920
sV192.42.113.102
p1921
VFGHRSDV
p1922
sV192.42.115.101
p1923
VFGHRSDV
p1924
sV192.42.115.102
p1925
VFGHRSDV
p1926
sV192.42.116.13
p1927
VEFGHRSDV
p1928
sV192.42.116.14
p1929
VEFGHRSDV
p1930
sV192.42.116.15
p1931
VEFGHRSDV
p1932
sV192.42.116.16
p1933
VEFGHRSDV
p1934
sV192.42.116.17
p1935
VEFGHRSDV
p1936
sV192.42.116.18
p1937
VEFGHRSDV
p1938
sV192.42.116.19
p1939
VEFGHRSDV
p1940
sV192.42.116.20
p1941
VEFGHRSDV
p1942
sV192.42.116.22
p1943
VEFGHRSDV
p1944
sV192.42.116.23
p1945
VEFGHRSDV
p1946
sV192.42.116.24
p1947
VEFGHRSDV
p1948
sV192.42.116.25
p1949
VEFGHRSDV
p1950
sV192.42.116.26
p1951
VEFGHRSDV
p1952
sV192.42.116.27
p1953
VEFGHRSDV
p1954
sV192.42.116.28
p1955
VEFGHRSDV
p1956
sV192.42.132.106
p1957
VFGHRSDV
p1958
sV192.44.30.40
p1959
VFGHRSDV
p1960
sV192.52.167.71
p1961
VFGHRSDV
p1962
sV192.68.11.219
p1963
VEFGHRSDV
p1964
sV192.81.223.14
p1965
VFGHRSDV
p1966
sV192.87.28.28
p1967
VFGHRSDV
p1968
sV192.87.28.82
p1969
VFGHRSDV
p1970
sV192.99.13.48
p1971
VFGHRSDV
p1972
sV192.99.159.76
p1973
VFGHRSDV
p1974
sV192.99.201.189
p1975
VFGHRSDV
p1976
sV192.99.245.119
p1977
VFGHRSDV
p1978
sV192.99.245.76
p1979
VFGHRSDV
p1980
sV192.99.34.48
p1981
VFGHRSDV
p1982
sV192.99.35.91
p1983
VFGHRSDV
p1984
sV192.99.42.34
p1985
VFGHRSDV
p1986
sV192.99.54.193
p1987
VFGHRSDV
p1988
sV192.99.63.44
p1989
VFGHRSDV
p1990
sV192.99.68.135
p1991
VFGHRSDV
p1992
sV192.99.69.17
p1993
VFGHRSDV
p1994
sV193.0.213.42
p1995
VFGHRSDV
p1996
sV193.105.73.80
p1997
VFGHRSDV
p1998
sV193.106.166.105
p1999
VFGRSDV
p2000
sV193.108.117.103
p2001
VFGRSDV
p2002
sV193.108.117.59
p2003
VFGHRSDV
p2004
sV193.11.114.43
p2005
VFGHRSDV
p2006
sV193.11.114.45
p2007
VFGHRSDV
p2008
sV193.11.114.46
p2009
VFGHRSDV
p2010
sV193.11.114.69
p2011
VFGHRSDV
p2012
sV193.11.164.243
p2013
VFGHRSDV
p2014
sV193.11.166.194
p2015
VFGHRSDV
p2016
sV193.110.157.151
p2017
VEFGHRSDV
p2018
sV193.111.26.37
p2019
VFGHRSDV
p2020
sV193.148.17.212
p2021
VFGHRSDV
p2022
sV193.148.68.142
p2023
VFGHRSDV
p2024
sV193.148.69.109
p2025
VFGHRSDV
p2026
sV193.148.69.128
p2027
VFGHRSDV
p2028
sV193.150.22.20
p2029
VFGHRSDV
p2030
sV193.164.133.89
p2031
VFGHRSDV
p2032
sV193.169.145.194
p2033
VEFGRSDV
p2034
sV193.169.145.202
p2035
VEFGRSDV
p2036
sV193.169.145.66
p2037
VEFGHRSDV
p2038
sV193.182.61.9
p2039
VFGHRSDV
p2040
sV193.183.98.224
p2041
VFGHRSDV
p2042
sV193.200.241.195
p2043
VFGHRSDV
p2044
sV193.201.225.45
p2045
VEFGRSDV
p2046
sV193.22.133.92
p2047
VFGHRSDV
p2048
sV193.228.143.17
p2049
VFGHRSDV
p2050
sV193.228.143.18
p2051
VFGHRSDV
p2052
sV193.228.143.19
p2053
VFGHRSDV
p2054
sV193.239.205.136
p2055
VFGHRSDV
p2056
sV193.24.209.70
p2057
VFGHRSDV
p2058
sV193.30.123.113
p2059
VFGHRSDV
p2060
sV193.31.24.28
p2061
VFGHRSDV
p2062
sV193.31.27.93
p2063
VFGHRSDV
p2064
sV193.35.52.53
p2065
VFGHRSDV
p2066
sV193.36.119.17
p2067
VEFGRSDV
p2068
sV193.37.59.153
p2069
VFGHRSDV
p2070
sV193.42.156.106
p2071
VFGHRSDV
p2072
sV193.56.29.101
p2073
VEFGHRSDV
p2074
sV193.63.58.76
p2075
VFGHRSDV
p2076
sV193.70.112.165
p2077
VFGHRSDV
p2078
sV193.70.40.121
p2079
VFGHRSDV
p2080
sV193.70.43.102
p2081
VFGHRSDV
p2082
sV193.70.43.20
p2083
VFGHRSDV
p2084
sV193.70.43.76
p2085
VFGHRSDV
p2086
sV193.70.73.242
p2087
VFGHRSDV
p2088
sV193.84.190.54
p2089
VFGHRSDV
p2090
sV193.9.115.24
p2091
VEFGRSDV
p2092
sV193.90.12.115
p2093
VEFGHRSDV
p2094
sV193.90.12.116
p2095
VEFGHRSDV
p2096
sV193.90.12.117
p2097
VEFGHRSDV
p2098
sV193.90.12.118
p2099
VEFGHRSDV
p2100
sV193.90.12.119
p2101
VEFGHRSDV
p2102
sV194.135.95.155
p2103
VFGHRSDV
p2104
sV194.147.34.65
p2105
VFGHRSDV
p2106
sV194.158.216.103
p2107
VFGHRSDV
p2108
sV194.160.170.212
p2109
VFGHRSDV
p2110
sV194.187.207.45
p2111
VFGRSDV
p2112
sV194.187.249.116
p2113
VFGHRSDV
p2114
sV194.34.132.185
p2115
VFGHRSDV
p2116
sV194.55.13.241
p2117
VFGRSDV
p2118
sV194.55.13.49
p2119
VFGHRSDV
p2120
sV194.55.13.50
p2121
VFGHRSDV
p2122
sV194.55.15.222
p2123
VFGRSDV
p2124
sV194.59.207.195
p2125
VFGHRSDV
p2126
sV194.63.142.11
p2127
VFGHRSDV
p2128
sV194.71.109.44
p2129
VEFGHRSDV
p2130
sV194.79.31.89
p2131
VFGHRSDV
p2132
sV194.88.143.66
p2133
VFGHRSDVX
p2134
sV195.122.181.242
p2135
VFGHRSDV
p2136
sV195.123.209.7
p2137
VFGHRSDV
p2138
sV195.123.212.228
p2139
VFGHRSDV
p2140
sV195.123.212.243
p2141
VFGHRSDV
p2142
sV195.123.213.211
p2143
VEFGHRSDV
p2144
sV195.123.214.120
p2145
VFGHRSDV
p2146
sV195.123.218.100
p2147
VFGHRSDV
p2148
sV195.123.228.107
p2149
VFGHRSDV
p2150
sV195.123.245.141
p2151
VFGHRSDV
p2152
sV195.144.21.182
p2153
VFGHRSDV
p2154
sV195.148.124.199
p2155
VFGHRSDV
p2156
sV195.154.118.198
p2157
VFGHRSDV
p2158
sV195.154.119.203
p2159
VFGHRSDV
p2160
sV195.154.133.124
p2161
VFGHRSDV
p2162
sV195.154.161.5
p2163
VFGHRSDV
p2164
sV195.154.162.172
p2165
VFGHRSDV
p2166
sV195.154.163.119
p2167
VFGHRSDV
p2168
sV195.154.164.243
p2169
VFGHRSDV
p2170
sV195.154.165.64
p2171
VFGHRSDV
p2172
sV195.154.181.146
p2173
VFGHRSDV
p2174
sV195.154.200.129
p2175
VFGHRSDV
p2176
sV195.154.209.91
p2177
VFGHRSDV
p2178
sV195.154.235.190
p2179
VFGHRSDV
p2180
sV195.154.237.147
p2181
VFGHRSDV
p2182
sV195.154.237.179
p2183
VFGHRSDV
p2184
sV195.154.240.145
p2185
VFGHRSDV
p2186
sV195.154.241.125
p2187
VFGHRSDV
p2188
sV195.154.250.239
p2189
VFGHRSDV
p2190
sV195.154.252.88
p2191
VFGHRSDV
p2192
sV195.154.253.226
p2193
VFGHRSDV
p2194
sV195.154.255.174
p2195
VFGHRSDV
p2196
sV195.154.28.200
p2197
VFGRSDV
p2198
sV195.169.125.226
p2199
VFGHRSDV
p2200
sV195.170.63.164
p2201
VFGHRSDVX
p2202
sV195.176.3.19
p2203
VEFGHRSDV
p2204
sV195.176.3.20
p2205
VEFGHRSDV
p2206
sV195.176.3.23
p2207
VEFGHRSDV
p2208
sV195.176.3.24
p2209
VEFGHRSDV
p2210
sV195.189.96.147
p2211
VFGRSDVX
p2212
sV195.189.96.148
p2213
VFGHRSDV
p2214
sV195.189.96.152
p2215
VFGRSDV
p2216
sV195.191.81.7
p2217
VFGHRSDV
p2218
sV195.201.103.59
p2219
VFGHRSDV
p2220
sV195.201.113.193
p2221
VFGHRSDV
p2222
sV195.201.121.3
p2223
VFGHRSDV
p2224
sV195.201.138.156
p2225
VFGHRSDV
p2226
sV195.201.141.166
p2227
VFGHRSDV
p2228
sV195.201.20.82
p2229
VFGHRSDV
p2230
sV195.201.21.75
p2231
VFGHRSDV
p2232
sV195.201.22.234
p2233
VFGHRSDV
p2234
sV195.201.26.209
p2235
VFGHRSDV
p2236
sV195.201.27.159
p2237
VFGHRSDV
p2238
sV195.201.31.248
p2239
VFGRSDV
p2240
sV195.201.9.37
p2241
VFGHRSDV
p2242
sV195.201.94.113
p2243
VFGHRSDV
p2244
sV195.206.105.217
p2245
VEFGHRSDV
p2246
sV195.251.252.226
p2247
VFGHRSDV
p2248
sV195.254.134.194
p2249
VEFGHRSDV
p2250
sV195.254.134.242
p2251
VEFGHRSDV
p2252
sV195.254.135.76
p2253
VEFGRSDV
p2254
sV197.231.221.211
p2255
VEFGHRSDV
p2256
sV198.100.145.207
p2257
VFGHRSDV
p2258
sV198.100.155.148
p2259
VFGHRSDV
p2260
sV198.12.71.94
p2261
VFGHRSDV
p2262
sV198.148.81.167
p2263
VFGHRSDV
p2264
sV198.16.70.10
p2265
VFGHRSDV
p2266
sV198.16.92.157
p2267
VFGRSDV
p2268
sV198.167.223.133
p2269
VEFGHRSDV
p2270
sV198.167.223.38
p2271
VEFGHRSDV
p2272
sV198.167.223.44
p2273
VEFGHRSDV
p2274
sV198.167.223.96
p2275
VFGHRSDV
p2276
sV198.180.150.9
p2277
VFGRSDV
p2278
sV198.23.156.50
p2279
VFGHRSDV
p2280
sV198.245.50.175
p2281
VFGHRSDV
p2282
sV198.27.64.215
p2283
VFGHRSDV
p2284
sV198.27.66.209
p2285
VFGHRSDV
p2286
sV198.27.81.192
p2287
VFGHRSDV
p2288
sV198.50.135.213
p2289
VFGHRSDV
p2290
sV198.50.200.129
p2291
VEFGRSDV
p2292
sV198.50.200.131
p2293
VEFGRSDV
p2294
sV198.50.211.194
p2295
VFGHRSDV
p2296
sV198.96.155.3
p2297
VEFGHRSDV
p2298
sV198.98.50.112
p2299
VEFGHRSDV
p2300
sV198.98.50.201
p2301
VEFGRSDV
p2302
sV198.98.53.79
p2303
VEFGHRSDV
p2304
sV198.98.55.14
p2305
VFGRSDV
p2306
sV198.98.56.149
p2307
VEFGHRSDV
p2308
sV198.98.57.155
p2309
VEFGRSDV
p2310
sV198.98.58.135
p2311
VEFGHRSDV
p2312
sV198.98.58.88
p2313
VFGRSDV
p2314
sV198.98.59.161
p2315
VEFGRSDV
p2316
sV198.98.60.40
p2317
VEFGHRSDV
p2318
sV198.98.61.88
p2319
VEFGHRSDV
p2320
sV199.115.114.70
p2321
VFGHRSDV
p2322
sV199.15.250.210
p2323
VFGHRSDV
p2324
sV199.184.246.250
p2325
VFGHRSDV
p2326
sV199.195.144.111
p2327
VFGHRSDV
p2328
sV199.195.250.77
p2329
VEFGRSDV
p2330
sV199.195.252.152
p2331
VEFGRSDV
p2332
sV199.249.230.100
p2333
VEFGHRSDV
p2334
sV199.249.230.101
p2335
VEFGHRSDV
p2336
sV199.249.230.102
p2337
VEFGHRSDV
p2338
sV199.249.230.103
p2339
VEFGHRSDV
p2340
sV199.249.230.104
p2341
VEFGHRSDV
p2342
sV199.249.230.105
p2343
VEFGHRSDV
p2344
sV199.249.230.106
p2345
VEFGHRSDV
p2346
sV199.249.230.107
p2347
VEFGHRSDV
p2348
sV199.249.230.108
p2349
VEFGHRSDV
p2350
sV199.249.230.109
p2351
VEFGHRSDV
p2352
sV199.249.230.110
p2353
VEFGHRSDV
p2354
sV199.249.230.111
p2355
VEFGHRSDV
p2356
sV199.249.230.112
p2357
VEFGHRSDV
p2358
sV199.249.230.113
p2359
VEFGHRSDV
p2360
sV199.249.230.114
p2361
VEFGHRSDV
p2362
sV199.249.230.115
p2363
VEFGHRSDV
p2364
sV199.249.230.116
p2365
VEFGHRSDV
p2366
sV199.249.230.117
p2367
VEFGHRSDV
p2368
sV199.249.230.118
p2369
VEFGHRSDV
p2370
sV199.249.230.119
p2371
VEFGHRSDV
p2372
sV199.249.230.120
p2373
VEFGHRSDV
p2374
sV199.249.230.121
p2375
VEFGHRSDV
p2376
sV199.249.230.64
p2377
VEFGHRSDV
p2378
sV199.249.230.65
p2379
VEFGHRSDV
p2380
sV199.249.230.66
p2381
VEFGHRSDV
p2382
sV199.249.230.67
p2383
VEFGHRSDV
p2384
sV199.249.230.68
p2385
VEFGHRSDV
p2386
sV199.249.230.69
p2387
VEFGHRSDV
p2388
sV199.249.230.70
p2389
VEFGHRSDV
p2390
sV199.249.230.71
p2391
VEFGHRSDV
p2392
sV199.249.230.72
p2393
VEFGHRSDV
p2394
sV199.249.230.73
p2395
VEFGHRSDV
p2396
sV199.249.230.74
p2397
VEFGHRSDV
p2398
sV199.249.230.75
p2399
VEFGHRSDV
p2400
sV199.249.230.76
p2401
VEFGHRSDV
p2402
sV199.249.230.77
p2403
VEFGHRSDV
p2404
sV199.249.230.78
p2405
VEFGHRSDV
p2406
sV199.249.230.79
p2407
VEFGHRSDV
p2408
sV199.249.230.80
p2409
VEFGHRSDV
p2410
sV199.249.230.81
p2411
VEFGHRSDV
p2412
sV199.249.230.82
p2413
VEFGHRSDV
p2414
sV199.249.230.83
p2415
VEFGHRSDV
p2416
sV199.249.230.84
p2417
VEFGHRSDV
p2418
sV199.249.230.85
p2419
VEFGHRSDV
p2420
sV199.249.230.86
p2421
VEFGHRSDV
p2422
sV199.249.230.87
p2423
VEFGHRSDV
p2424
sV199.249.230.88
p2425
VEFGHRSDV
p2426
sV199.249.230.89
p2427
VEFGHRSDV
p2428
sV199.254.238.44
p2429
VFGHRSDV
p2430
sV199.87.154.255
p2431
VEFGHRSDV
p2432
sV2.137.20.63
p2433
VFGRSDV
p2434
sV2.137.201.154
p2435
VFGRSDV
p2436
sV2.225.231.92
p2437
VFGHRSDV
p2438
sV2.230.193.197
p2439
VFGRSDV
p2440
sV2.37.217.231
p2441
VFGRSDV
p2442
sV200.122.181.101
p2443
VFGHRSDV
p2444
sV200.122.181.78
p2445
VFGHRSDV
p2446
sV200.52.55.54
p2447
VEFGHRSDV
p2448
sV200.94.194.224
p2449
VFGRSDV
p2450
sV204.11.50.131
p2451
VEFGHRSDV
p2452
sV204.12.234.179
p2453
VFGHRSDV
p2454
sV204.13.164.107
p2455
VFGHRSDV
p2456
sV204.17.56.42
p2457
VEFGHRSDV
p2458
sV204.194.29.4
p2459
VEFGHRSDV
p2460
sV204.8.156.142
p2461
VEFGHRSDV
p2462
sV204.85.191.8
p2463
VEFGHRSDV
p2464
sV204.85.191.9
p2465
VEFGHRSDV
p2466
sV205.185.118.79
p2467
VFGHRSDV
p2468
sV205.185.120.227
p2469
VEFGHRSDV
p2470
sV205.185.122.150
p2471
VFGHRSDV
p2472
sV205.185.125.145
p2473
VFGHRSDV
p2474
sV205.185.127.219
p2475
VEFGHRSDV
p2476
sV205.201.63.48
p2477
VFGHRSDV
p2478
sV206.189.181.82
p2479
VFGHRSDV
p2480
sV206.192.252.123
p2481
VFGHRSDV
p2482
sV206.55.74.1
p2483
VFGHRSDV
p2484
sV207.180.216.146
p2485
VFGHRSDV
p2486
sV207.180.221.220
p2487
VFGHRSDV
p2488
sV207.180.221.73
p2489
VFGHRSDV
p2490
sV207.180.224.17
p2491
VFGHRSDVX
p2492
sV207.180.230.109
p2493
VFGHRSDV
p2494
sV207.180.237.193
p2495
VFGHRSDV
p2496
sV207.180.251.11
p2497
VFGHRSDV
p2498
sV207.210.46.88
p2499
VFGHRSDV
p2500
sV207.229.65.155
p2501
VFGRSDV
p2502
sV207.244.70.35
p2503
VEFGHRSDV
p2504
sV208.113.135.162
p2505
VFGHRSDV
p2506
sV208.12.90.101
p2507
VEFGHRSDV
p2508
sV208.38.243.107
p2509
VFGHRSDV
p2510
sV208.80.154.9
p2511
VFGHRSDV
p2512
sV208.94.242.26
p2513
VFGRSDV
p2514
sV209.126.103.140
p2515
VFGHRSDV
p2516
sV209.126.76.249
p2517
VFGHRSDV
p2518
sV209.141.37.141
p2519
VFGHRSDV
p2520
sV209.141.37.190
p2521
VFGHRSDV
p2522
sV209.141.37.32
p2523
VFGHRSDV
p2524
sV209.141.41.103
p2525
VEFGHRSDV
p2526
sV209.141.41.125
p2527
VEFGHRSDV
p2528
sV209.141.41.41
p2529
VEFGHRSDV
p2530
sV209.141.43.134
p2531
VEFGHRSDV
p2532
sV209.141.45.212
p2533
VEFGHRSDV
p2534
sV209.141.46.201
p2535
VEFGHRSDV
p2536
sV209.141.51.150
p2537
VEFGHRSDV
p2538
sV209.141.53.49
p2539
VEFGHRSDV
p2540
sV209.141.56.103
p2541
VEFGHRSDV
p2542
sV209.141.58.114
p2543
VEFGHRSDV
p2544
sV209.141.61.45
p2545
VEFGHRSDV
p2546
sV209.148.46.83
p2547
VFGHRSDV
p2548
sV209.240.109.238
p2549
VFGHRSDV
p2550
sV209.250.2.254
p2551
VFGHRSDV
p2552
sV209.51.188.48
p2553
VFGHRSDV
p2554
sV209.95.51.11
p2555
VEFGHRSDV
p2556
sV212.107.138.107
p2557
VFGHRSDV
p2558
sV212.129.4.84
p2559
VFGHRSDV
p2560
sV212.129.5.219
p2561
VFGHRSDV
p2562
sV212.129.62.232
p2563
VFGRSDV
p2564
sV212.16.170.158
p2565
VFGHRSDV
p2566
sV212.186.71.38
p2567
VFGHRSDV
p2568
sV212.187.200.170
p2569
VFGHRSDV
p2570
sV212.21.66.6
p2571
VEFGHRSDV
p2572
sV212.227.193.54
p2573
VFGHRSDV
p2574
sV212.227.200.133
p2575
VFGHRSDV
p2576
sV212.227.200.150
p2577
VFGHRSDV
p2578
sV212.237.100.250
p2579
VFGHRSDV
p2580
sV212.237.210.8
p2581
VFGHRSDV
p2582
sV212.24.100.138
p2583
VFGHRSDV
p2584
sV212.47.226.52
p2585
VFGHRSDV
p2586
sV212.47.227.71
p2587
VFGHRSDV
p2588
sV212.47.227.75
p2589
VFGHRSDV
p2590
sV212.47.229.2
p2591
VFGHRSDV
p2592
sV212.47.230.49
p2593
VFGHRSDV
p2594
sV212.47.231.164
p2595
VFGHRSDV
p2596
sV212.47.233.250
p2597
VFGHRSDV
p2598
sV212.47.233.86
p2599
VFGHRSDV
p2600
sV212.47.236.86
p2601
VFGHRSDV
p2602
sV212.47.236.95
p2603
VFGHRSDV
p2604
sV212.47.237.191
p2605
VFGHRSDV
p2606
sV212.47.238.203
p2607
VFGHRSDV
p2608
sV212.47.239.151
p2609
VFGHRSDV
p2610
sV212.47.239.187
p2611
VFGHRSDV
p2612
sV212.47.239.83
p2613
VFGHRSDV
p2614
sV212.47.240.189
p2615
VFGHRSDV
p2616
sV212.47.243.166
p2617
VFGHRSDV
p2618
sV212.47.244.38
p2619
VFGHRSDV
p2620
sV212.47.247.109
p2621
VFGHRSDV
p2622
sV212.47.248.113
p2623
VFGHRSDV
p2624
sV212.47.248.93
p2625
VFGHRSDV
p2626
sV212.47.254.236
p2627
VFGHRSDV
p2628
sV212.51.129.49
p2629
VFGHRSDV
p2630
sV212.51.134.123
p2631
VFGHRSDV
p2632
sV212.51.156.224
p2633
VFGHRSDV
p2634
sV212.51.156.89
p2635
VFGHRSDV
p2636
sV212.69.166.122
p2637
VFGHRSDV
p2638
sV212.7.217.52
p2639
VFGRSDV
p2640
sV212.74.233.18
p2641
VFGHRSDV
p2642
sV212.74.233.19
p2643
VFGHRSDV
p2644
sV212.8.243.229
p2645
VFGRSDV
p2646
sV212.83.154.33
p2647
VFGHRSDV
p2648
sV212.83.155.215
p2649
VFGHRSDV
p2650
sV212.83.61.218
p2651
VFGRSDV
p2652
sV212.89.225.242
p2653
VFGHRSDV
p2654
sV213.109.56.220
p2655
VFGHRSDV
p2656
sV213.114.112.243
p2657
VFGHRSDV
p2658
sV213.131.6.186
p2659
VFGHRSDV
p2660
sV213.136.69.237
p2661
VFGHRSDV
p2662
sV213.141.129.246
p2663
VFGHRSDV
p2664
sV213.141.138.174
p2665
VFGHRSDV
p2666
sV213.144.156.192
p2667
VFGHRSDV
p2668
sV213.152.161.211
p2669
VFGHRSDV
p2670
sV213.152.168.27
p2671
VFGHRSDV
p2672
sV213.163.70.234
p2673
VFGHRSDV
p2674
sV213.169.148.151
p2675
VFGHRSDV
p2676
sV213.183.60.21
p2677
VFGHRSDV
p2678
sV213.183.63.36
p2679
VFGRSDV
p2680
sV213.202.236.82
p2681
VFGRSDV
p2682
sV213.21.26.171
p2683
VFGHRSDV
p2684
sV213.215.202.234
p2685
VFGHRSDV
p2686
sV213.220.220.60
p2687
VFGHRSDV
p2688
sV213.226.68.77
p2689
VFGRSDV
p2690
sV213.227.133.129
p2691
VFGRSDV
p2692
sV213.239.204.62
p2693
VFGHRSDV
p2694
sV213.239.205.73
p2695
VFGHRSDV
p2696
sV213.239.212.138
p2697
VFGHRSDV
p2698
sV213.239.213.190
p2699
VFGRSDV
p2700
sV213.239.214.13
p2701
VFGHRSDV
p2702
sV213.239.215.221
p2703
VFGHRSDV
p2704
sV213.239.216.221
p2705
VFGHRSDV
p2706
sV213.239.216.222
p2707
VFGHRSDV
p2708
sV213.239.217.105
p2709
VFGHRSDV
p2710
sV213.246.39.160
p2711
VFGHRSDV
p2712
sV213.246.56.79
p2713
VFGHRSDV
p2714
sV213.32.119.219
p2715
VFGHRSDV
p2716
sV213.32.71.116
p2717
VFGHRSDV
p2718
sV213.32.90.15
p2719
VFGHRSDV
p2720
sV213.60.4.103
p2721
VFGRSDV
p2722
sV213.61.215.53
p2723
VEFGHRSDV
p2724
sV213.64.65.106
p2725
VFGRSDV
p2726
sV216.127.173.78
p2727
VFGHRSDV
p2728
sV216.127.187.29
p2729
VFGHRSDV
p2730
sV216.19.178.143
p2731
VFGHRSDVX
p2732
sV216.197.76.237
p2733
VFGHRSDV
p2734
sV216.218.134.12
p2735
VEFGHRSDV
p2736
sV216.239.90.19
p2737
VEFGHRSDV
p2738
sV216.24.242.34
p2739
VFGRSDV
p2740
sV216.244.74.42
p2741
VFGHRSDV
p2742
sV217.112.131.24
p2743
VFGHRSDV
p2744
sV217.112.131.98
p2745
VFGHRSDV
p2746
sV217.115.10.131
p2747
VEFGRSDV
p2748
sV217.115.10.132
p2749
VEFGHRSDV
p2750
sV217.115.127.34
p2751
VFGHRSDV
p2752
sV217.12.199.190
p2753
VFGHRSDV
p2754
sV217.12.199.211
p2755
VFGHRSDV
p2756
sV217.12.199.62
p2757
VFGHRSDV
p2758
sV217.12.208.117
p2759
VFGHRSDV
p2760
sV217.12.221.110
p2761
VFGHRSDV
p2762
sV217.12.223.56
p2763
VEFGRSDV
p2764
sV217.144.138.249
p2765
VFGHRSDV
p2766
sV217.160.13.173
p2767
VFGHRSDV
p2768
sV217.163.29.244
p2769
VFGHRSDV
p2770
sV217.170.197.83
p2771
VEFGHRSDV
p2772
sV217.170.197.89
p2773
VEFGHRSDV
p2774
sV217.182.196.65
p2775
VFGHRSDV
p2776
sV217.182.196.67
p2777
VFGHRSDV
p2778
sV217.182.196.68
p2779
VFGHRSDV
p2780
sV217.182.196.70
p2781
VFGHRSDV
p2782
sV217.182.196.71
p2783
VFGHRSDV
p2784
sV217.182.198.204
p2785
VEFGHRSDV
p2786
sV217.182.198.76
p2787
VFGHRSDV
p2788
sV217.182.198.80
p2789
VFGHRSDV
p2790
sV217.182.198.95
p2791
VFGHRSDV
p2792
sV217.182.51.248
p2793
VFGHRSDV
p2794
sV217.182.75.181
p2795
VFGHRSDV
p2796
sV217.182.76.66
p2797
VFGHRSDV
p2798
sV217.199.207.250
p2799
VFGHRSDV
p2800
sV217.20.130.72
p2801
VFGHRSDV
p2802
sV217.23.15.200
p2803
VFGHRSDV
p2804
sV217.23.7.103
p2805
VFGHRSDV
p2806
sV217.69.145.234
p2807
VFGHRSDV
p2808
sV217.78.28.37
p2809
VFGRSDV
p2810
sV217.79.178.18
p2811
VFGHRSDV
p2812
sV217.79.178.60
p2813
VFGHRSDV
p2814
sV217.79.179.177
p2815
VFGHRSDV
p2816
sV217.79.181.23
p2817
VFGHRSDV
p2818
sV217.79.181.90
p2819
VFGHRSDV
p2820
sV217.79.184.72
p2821
VFGHRSDV
p2822
sV217.79.190.25
p2823
VFGHRSDV
p2824
sV217.82.121.118
p2825
VFGHRSDV
p2826
sV23.129.64.150
p2827
VEFGHRSDV
p2828
sV23.129.64.151
p2829
VEFGHRSDV
p2830
sV23.129.64.152
p2831
VEFGHRSDV
p2832
sV23.129.64.153
p2833
VEFGHRSDV
p2834
sV23.129.64.154
p2835
VEFGHRSDV
p2836
sV23.129.64.155
p2837
VEFGHRSDV
p2838
sV23.129.64.156
p2839
VEFGHRSDV
p2840
sV23.129.64.157
p2841
VEFGHRSDV
p2842
sV23.129.64.158
p2843
VEFGHRSDV
p2844
sV23.129.64.159
p2845
VEFGHRSDV
p2846
sV23.129.64.160
p2847
VEFGHRSDV
p2848
sV23.129.64.161
p2849
VEFGHRSDV
p2850
sV23.129.64.162
p2851
VEFGHRSDV
p2852
sV23.129.64.163
p2853
VEFGHRSDV
p2854
sV23.129.64.165
p2855
VEFGHRSDV
p2856
sV23.129.64.166
p2857
VEFGHRSDV
p2858
sV23.129.64.167
p2859
VEFGHRSDV
p2860
sV23.129.64.168
p2861
VEFGHRSDV
p2862
sV23.129.64.169
p2863
VEFGHRSDV
p2864
sV23.129.64.170
p2865
VEFGHRSDV
p2866
sV23.129.64.171
p2867
VEFGHRSDV
p2868
sV23.129.64.172
p2869
VEFGHRSDV
p2870
sV23.129.64.173
p2871
VEFGHRSDV
p2872
sV23.129.64.174
p2873
VEFGHRSDV
p2874
sV23.129.64.180
p2875
VEFGHRSDV
p2876
sV23.129.64.181
p2877
VEFGHRSDV
p2878
sV23.129.64.182
p2879
VEFGHRSDV
p2880
sV23.129.64.183
p2881
VEFGHRSDV
p2882
sV23.129.64.184
p2883
VEFGHRSDV
p2884
sV23.129.64.186
p2885
VEFGHRSDV
p2886
sV23.129.64.187
p2887
VEFGHRSDV
p2888
sV23.129.64.188
p2889
VEFGHRSDV
p2890
sV23.129.64.189
p2891
VEFGHRSDV
p2892
sV23.129.64.190
p2893
VEFGHRSDV
p2894
sV23.129.64.191
p2895
VEFGHRSDV
p2896
sV23.129.64.192
p2897
VEFGHRSDV
p2898
sV23.129.64.193
p2899
VEFGHRSDV
p2900
sV23.129.64.194
p2901
VEFGHRSDV
p2902
sV23.129.64.200
p2903
VEFGHRSDV
p2904
sV23.129.64.201
p2905
VEFGHRSDV
p2906
sV23.129.64.202
p2907
VEFGHRSDV
p2908
sV23.129.64.203
p2909
VEFGHRSDV
p2910
sV23.129.64.204
p2911
VEFGHRSDV
p2912
sV23.129.64.205
p2913
VEFGHRSDV
p2914
sV23.129.64.206
p2915
VEFGHRSDV
p2916
sV23.129.64.207
p2917
VEFGHRSDV
p2918
sV23.129.64.208
p2919
VEFGHRSDV
p2920
sV23.129.64.209
p2921
VEFGHRSDV
p2922
sV23.129.64.210
p2923
VEFGHRSDV
p2924
sV23.129.64.211
p2925
VEFGHRSDV
p2926
sV23.129.64.212
p2927
VEFGHRSDV
p2928
sV23.129.64.213
p2929
VEFGHRSDV
p2930
sV23.129.64.214
p2931
VEFGHRSDV
p2932
sV23.165.192.253
p2933
VFGHRSDV
p2934
sV23.227.192.5
p2935
VFGHRSDVX
p2936
sV23.227.206.228
p2937
VFGHRSDV
p2938
sV23.239.30.69
p2939
VFGHRSDV
p2940
sV23.239.9.92
p2941
VFGHRSDV
p2942
sV23.81.66.90
p2943
VFGHRSDV
p2944
sV24.154.185.98
p2945
VFGHRSDV
p2946
sV24.228.49.184
p2947
VFGHRSDV
p2948
sV27.122.59.100
p2949
VEFGRSDV
p2950
sV31.129.166.78
p2951
VFGHRSDV
p2952
sV31.13.188.43
p2953
VFGHRSDV
p2954
sV31.131.2.17
p2955
VFGHRSDV
p2956
sV31.131.2.19
p2957
VEFGHRSDV
p2958
sV31.178.172.78
p2959
VFGHRSDV
p2960
sV31.184.198.152
p2961
VFGHRSDV
p2962
sV31.184.198.183
p2963
VFGRSDV
p2964
sV31.185.104.19
p2965
VEFGHRSDV
p2966
sV31.185.104.20
p2967
VEFGHRSDV
p2968
sV31.185.104.21
p2969
VEFGHRSDV
p2970
sV31.20.167.203
p2971
VFGHRSDV
p2972
sV31.20.205.209
p2973
VFGHRSDV
p2974
sV31.211.215.105
p2975
VFGHRSDV
p2976
sV31.220.0.225
p2977
VEFGHRSDV
p2978
sV31.220.40.54
p2979
VEFGHRSDV
p2980
sV31.220.61.198
p2981
VFGHRSDV
p2982
sV31.28.168.174
p2983
VFGHRSDV
p2984
sV31.31.72.24
p2985
VEFGRSDV
p2986
sV31.31.73.222
p2987
VFGHRSDV
p2988
sV31.31.74.131
p2989
VEFGHRSDV
p2990
sV31.31.74.177
p2991
VFGHRSDV
p2992
sV31.31.74.47
p2993
VFGHRSDVX
p2994
sV31.31.76.120
p2995
VFGHRSDV
p2996
sV31.31.76.123
p2997
VFGHRSDV
p2998
sV31.31.77.217
p2999
VEFGHRSDV
p3000
sV31.31.78.49
p3001
VFGHRSDV
p3002
sV32.212.69.36
p3003
VFGHRSDV
p3004
sV35.0.127.52
p3005
VEFGHRSDV
p3006
sV35.170.77.224
p3007
VFGHRSDV
p3008
sV37.120.146.42
p3009
VFGRSDV
p3010
sV37.120.146.80
p3011
VFGHRSDV
p3012
sV37.120.146.88
p3013
VFGHRSDV
p3014
sV37.120.161.32
p3015
VFGHRSDV
p3016
sV37.120.162.126
p3017
VFGHRSDV
p3018
sV37.120.167.175
p3019
VFGHRSDV
p3020
sV37.120.169.252
p3021
VFGHRSDV
p3022
sV37.120.171.188
p3023
VFGRSDV
p3024
sV37.120.172.242
p3025
VFGHRSDV
p3026
sV37.120.174.249
p3027
VFGRSDV
p3028
sV37.120.184.242
p3029
VFGHRSDV
p3030
sV37.120.191.212
p3031
VFGHRSDV
p3032
sV37.128.222.30
p3033
VEFGRSDV
p3034
sV37.134.164.64
p3035
VFGHRSDVX
p3036
sV37.139.8.104
p3037
VEFGHRSDV
p3038
sV37.15.30.22
p3039
VFGRSDV
p3040
sV37.153.1.10
p3041
VFGRSDV
p3042
sV37.153.16.170
p3043
VFGHRSDV
p3044
sV37.157.195.83
p3045
VFGHRSDV
p3046
sV37.157.195.87
p3047
VFGHRSDV
p3048
sV37.157.196.142
p3049
VFGHRSDV
p3050
sV37.157.254.113
p3051
VFGHRSDV
p3052
sV37.157.255.114
p3053
VFGHRSDV
p3054
sV37.157.255.118
p3055
VFGHRSDV
p3056
sV37.157.255.35
p3057
VFGRSDV
p3058
sV37.187.102.108
p3059
VFGHRSDV
p3060
sV37.187.102.186
p3061
VFGHRSDV
p3062
sV37.187.102.5
p3063
VFGRSDV
p3064
sV37.187.103.156
p3065
VFGHRSDV
p3066
sV37.187.103.213
p3067
VFGHRSDV
p3068
sV37.187.103.54
p3069
VFGHRSDV
p3070
sV37.187.104.178
p3071
VFGHRSDV
p3072
sV37.187.105.104
p3073
VEFGHRSDV
p3074
sV37.187.107.91
p3075
VFGHRSDV
p3076
sV37.187.113.218
p3077
VFGHRSDV
p3078
sV37.187.115.157
p3079
VFGHRSDV
p3080
sV37.187.115.47
p3081
VFGHRSDV
p3082
sV37.187.118.34
p3083
VFGRSDV
p3084
sV37.187.120.37
p3085
VFGHRSDV
p3086
sV37.187.122.101
p3087
VFGHRSDV
p3088
sV37.187.122.8
p3089
VFGHRSDV
p3090
sV37.187.16.175
p3091
VFGHRSDV
p3092
sV37.187.17.67
p3093
VFGHRSDV
p3094
sV37.187.177.2
p3095
VFGRSDV
p3096
sV37.187.20.59
p3097
VFGHRSDV
p3098
sV37.187.21.157
p3099
VFGHRSDV
p3100
sV37.187.22.131
p3101
VFGHRSDV
p3102
sV37.187.23.232
p3103
VFGHRSDV
p3104
sV37.187.23.96
p3105
VFGHRSDV
p3106
sV37.187.239.8
p3107
VFGHRSDVX
p3108
sV37.187.3.106
p3109
VFGHRSDV
p3110
sV37.187.4.8
p3111
VFGHRSDV
p3112
sV37.187.75.165
p3113
VFGHRSDV
p3114
sV37.187.96.183
p3115
VFGHRSDV
p3116
sV37.187.96.84
p3117
VFGHRSDV
p3118
sV37.187.98.185
p3119
VFGHRSDV
p3120
sV37.187.98.35
p3121
VFGHRSDV
p3122
sV37.191.136.55
p3123
VFGHRSDV
p3124
sV37.191.172.198
p3125
VFGHRSDV
p3126
sV37.191.193.148
p3127
VFGHRSDV
p3128
sV37.191.194.125
p3129
VFGHRSDV
p3130
sV37.191.195.60
p3131
VFGHRSDV
p3132
sV37.191.197.250
p3133
VFGHRSDV
p3134
sV37.191.199.186
p3135
VFGHRSDV
p3136
sV37.191.199.39
p3137
VFGHRSDV
p3138
sV37.191.200.122
p3139
VFGHRSDV
p3140
sV37.191.205.231
p3141
VFGHRSDV
p3142
sV37.191.205.53
p3143
VFGHRSDV
p3144
sV37.191.206.158
p3145
VFGHRSDV
p3146
sV37.200.99.251
p3147
VFGHRSDV
p3148
sV37.205.8.191
p3149
VFGHRSDV
p3150
sV37.218.241.28
p3151
VFGHRSDV
p3152
sV37.218.242.217
p3153
VFGHRSDV
p3154
sV37.218.242.26
p3155
VFGHRSDV
p3156
sV37.220.36.240
p3157
VEFGHRSDV
p3158
sV37.221.162.226
p3159
VFGHRSDV
p3160
sV37.221.193.44
p3161
VFGHRSDV
p3162
sV37.228.129.2
p3163
VEFGHRSDV
p3164
sV37.228.129.53
p3165
VFGHRSDV
p3166
sV37.252.185.180
p3167
VFGHRSDV
p3168
sV37.252.185.182
p3169
VFGHRSDV
p3170
sV37.252.185.87
p3171
VFGHRSDV
p3172
sV37.252.187.111
p3173
VFGHRSDV
p3174
sV37.252.187.129
p3175
VFGRSDV
p3176
sV37.252.187.3
p3177
VFGHRSDV
p3178
sV37.252.188.16
p3179
VFGHRSDV
p3180
sV37.252.190.176
p3181
VFGHRSDV
p3182
sV37.28.154.68
p3183
VFGHRSDVX
p3184
sV37.48.124.184
p3185
VFGRSDV
p3186
sV37.59.108.97
p3187
VFGHRSDV
p3188
sV37.59.118.7
p3189
VFGHRSDV
p3190
sV37.59.61.35
p3191
VFGHRSDV
p3192
sV37.75.227.17
p3193
VFGHRSDV
p3194
sV37.9.231.195
p3195
VFGHRSDVX
p3196
sV38.130.218.59
p3197
VFGHRSDV
p3198
sV38.68.135.5
p3199
VFGHRSDV
p3200
sV38.91.101.180
p3201
VFGHRSDV
p3202
sV40.69.190.27
p3203
VFGHRSDV
p3204
sV45.123.118.101
p3205
VFGRSDV
p3206
sV45.125.65.45
p3207
VEFGRSDV
p3208
sV45.32.181.63
p3209
VFGHRSDV
p3210
sV45.35.192.34
p3211
VFGHRSDV
p3212
sV45.56.103.80
p3213
VEFGHRSDV
p3214
sV45.56.111.81
p3215
VFGHRSDV
p3216
sV45.62.212.103
p3217
VFGHRSDV
p3218
sV45.62.212.190
p3219
VFGHRSDV
p3220
sV45.62.227.240
p3221
VFGHRSDV
p3222
sV45.62.229.238
p3223
VFGHRSDV
p3224
sV45.62.233.115
p3225
VFGHRSDV
p3226
sV45.62.233.36
p3227
VFGHRSDV
p3228
sV45.62.235.224
p3229
VFGHRSDV
p3230
sV45.62.244.154
p3231
VFGHRSDV
p3232
sV45.62.245.142
p3233
VFGHRSDV
p3234
sV45.62.246.155
p3235
VFGHRSDV
p3236
sV45.62.246.161
p3237
VFGHRSDV
p3238
sV45.62.246.162
p3239
VFGHRSDV
p3240
sV45.62.246.174
p3241
VFGHRSDV
p3242
sV45.62.246.179
p3243
VFGHRSDV
p3244
sV45.62.246.185
p3245
VFGHRSDV
p3246
sV45.62.246.187
p3247
VFGHRSDV
p3248
sV45.62.246.189
p3249
VFGHRSDV
p3250
sV45.62.246.208
p3251
VFGHRSDV
p3252
sV45.62.246.225
p3253
VFGHRSDV
p3254
sV45.62.246.227
p3255
VFGHRSDV
p3256
sV45.62.249.154
p3257
VFGHRSDV
p3258
sV45.63.15.217
p3259
VFGHRSDV
p3260
sV45.63.9.89
p3261
VFGHRSDV
p3262
sV45.66.32.220
p3263
VFGHRSDV
p3264
sV45.79.138.8
p3265
VFGHRSDV
p3266
sV45.79.199.67
p3267
VFGHRSDV
p3268
sV45.79.222.13
p3269
VFGHRSDV
p3270
sV46.101.100.94
p3271
VFGHRSDV
p3272
sV46.101.183.160
p3273
VFGHRSDV
p3274
sV46.101.55.205
p3275
VFGHRSDV
p3276
sV46.101.9.51
p3277
VFGHRSDV
p3278
sV46.105.227.109
p3279
VFGHRSDV
p3280
sV46.161.40.101
p3281
VFGHRSDV
p3282
sV46.165.230.5
p3283
VEFGHRSDV
p3284
sV46.165.245.154
p3285
VEFGHRSDV
p3286
sV46.165.250.224
p3287
VFGHRSDV
p3288
sV46.165.254.166
p3289
VEFGHRSDV
p3290
sV46.166.139.35
p3291
VEFGHRSDV
p3292
sV46.166.162.53
p3293
VEFGHRSDV
p3294
sV46.166.182.20
p3295
VFGHRSDV
p3296
sV46.166.185.53
p3297
VFGHRSDV
p3298
sV46.166.187.77
p3299
VFGRSDV
p3300
sV46.167.245.51
p3301
VFGHRSDVX
p3302
sV46.173.214.3
p3303
VFGHRSDV
p3304
sV46.182.106.190
p3305
VEFGHRSDV
p3306
sV46.183.221.143
p3307
VFGHRSDV
p3308
sV46.188.6.64
p3309
VFGHRSDV
p3310
sV46.19.143.139
p3311
VFGHRSDV
p3312
sV46.21.147.136
p3313
VFGHRSDV
p3314
sV46.21.147.19
p3315
VFGHRSDV
p3316
sV46.22.212.230
p3317
VFGHRSDV
p3318
sV46.229.238.172
p3319
VFGRSDV
p3320
sV46.23.72.81
p3321
VFGHRSDV
p3322
sV46.231.93.216
p3323
VFGHRSDV
p3324
sV46.232.248.243
p3325
VFGRSDV
p3326
sV46.232.248.80
p3327
VFGHRSDV
p3328
sV46.249.37.109
p3329
VFGHRSDV
p3330
sV46.28.108.91
p3331
VFGHRSDV
p3332
sV46.28.109.231
p3333
VFGHRSDV
p3334
sV46.28.110.244
p3335
VFGHRSDV
p3336
sV46.28.207.107
p3337
VFGHRSDV
p3338
sV46.29.163.225
p3339
VFGRSDV
p3340
sV46.29.164.24
p3341
VFGHRSDV
p3342
sV46.29.248.238
p3343
VEFGHRSDV
p3344
sV46.29.250.27
p3345
VFGRSDV
p3346
sV46.36.36.248
p3347
VFGHRSDV
p3348
sV46.36.39.134
p3349
VFGHRSDV
p3350
sV46.36.40.21
p3351
VFGHRSDV
p3352
sV46.38.234.52
p3353
VFGHRSDV
p3354
sV46.38.235.14
p3355
VEFGHRSDV
p3356
sV46.38.237.221
p3357
VFGHRSDV
p3358
sV46.38.238.209
p3359
VFGHRSDV
p3360
sV46.38.48.225
p3361
VFGHRSDV
p3362
sV46.38.51.18
p3363
VFGHRSDV
p3364
sV46.4.102.254
p3365
VFGHRSDV
p3366
sV46.4.111.124
p3367
VFGHRSDV
p3368
sV46.4.122.173
p3369
VFGRSDV
p3370
sV46.4.124.165
p3371
VFGHRSDV
p3372
sV46.4.217.100
p3373
VFGHRSDV
p3374
sV46.4.233.104
p3375
VFGHRSDV
p3376
sV46.4.34.242
p3377
VFGRSDV
p3378
sV46.4.40.67
p3379
VFGHRSDV
p3380
sV46.43.2.18
p3381
VFGHRSDV
p3382
sV46.72.31.122
p3383
VFGHRSDV
p3384
sV46.80.61.238
p3385
VFGHRSDV
p3386
sV46.92.219.228
p3387
VFGHRSDV
p3388
sV5.1.56.52
p3389
VFGHRSDV
p3390
sV5.12.208.228
p3391
VFGHRSDV
p3392
sV5.135.115.34
p3393
VFGHRSDV
p3394
sV5.135.145.195
p3395
VFGHRSDV
p3396
sV5.135.152.66
p3397
VFGRSDV
p3398
sV5.135.153.22
p3399
VFGHRSDV
p3400
sV5.135.158.101
p3401
VEFGHRSDV
p3402
sV5.135.158.162
p3403
VFGHRSDV
p3404
sV5.135.162.49
p3405
VFGHRSDV
p3406
sV5.135.176.38
p3407
VFGHRSDV
p3408
sV5.135.177.107
p3409
VFGHRSDV
p3410
sV5.135.178.184
p3411
VFGHRSDV
p3412
sV5.135.181.213
p3413
VFGHRSDV
p3414
sV5.135.186.73
p3415
VFGHRSDV
p3416
sV5.135.199.13
p3417
VFGRSDV
p3418
sV5.135.65.145
p3419
VFGHRSDVX
p3420
sV5.14.33.32
p3421
VFGHRSDV
p3422
sV5.147.248.158
p3423
VFGHRSDV
p3424
sV5.150.254.67
p3425
VEFGHRSDV
p3426
sV5.172.138.236
p3427
VFGHRSDV
p3428
sV5.189.138.9
p3429
VFGHRSDV
p3430
sV5.189.139.38
p3431
VFGHRSDV
p3432
sV5.189.142.118
p3433
VFGHRSDV
p3434
sV5.189.150.139
p3435
VFGHRSDV
p3436
sV5.189.164.230
p3437
VFGHRSDV
p3438
sV5.189.169.190
p3439
VFGHRSDV
p3440
sV5.189.181.61
p3441
VFGRSDV
p3442
sV5.19.162.103
p3443
VFGHRSDV
p3444
sV5.196.213.56
p3445
VFGHRSDV
p3446
sV5.196.23.64
p3447
VFGHRSDV
p3448
sV5.196.58.96
p3449
VFGHRSDV
p3450
sV5.196.65.29
p3451
VFGHRSDV
p3452
sV5.196.66.162
p3453
VEFGHRSDV
p3454
sV5.199.142.236
p3455
VFGHRSDV
p3456
sV5.2.77.146
p3457
VEFGHRSDV
p3458
sV5.200.21.144
p3459
VFGHRSDV
p3460
sV5.200.23.84
p3461
VFGHRSDV
p3462
sV5.252.176.20
p3463
VEFGRSDV
p3464
sV5.254.66.111
p3465
VFGHRSDV
p3466
sV5.3.165.15
p3467
VEFGHRSDV
p3468
sV5.34.181.34
p3469
VEFGHRSDV
p3470
sV5.34.181.35
p3471
VEFGHRSDV
p3472
sV5.34.183.29
p3473
VFGHRSDV
p3474
sV5.39.33.176
p3475
VFGHRSDV
p3476
sV5.39.33.178
p3477
VFGHRSDV
p3478
sV5.39.60.243
p3479
VFGRSDV
p3480
sV5.39.69.166
p3481
VFGHRSDV
p3482
sV5.39.78.40
p3483
VFGHRSDV
p3484
sV5.39.80.135
p3485
VFGHRSDV
p3486
sV5.44.101.190
p3487
VFGHRSDV
p3488
sV5.45.111.149
p3489
VFGRSDV
p3490
sV5.79.113.109
p3491
VFGHRSDV
p3492
sV5.79.66.4
p3493
VFGHRSDV
p3494
sV5.79.68.161
p3495
VFGHRSDVX
p3496
sV5.79.79.133
p3497
VFGHRSDV
p3498
sV5.9.121.207
p3499
VFGHRSDV
p3500
sV5.9.137.167
p3501
VFGHRSDV
p3502
sV5.9.143.167
p3503
VFGRSDV
p3504
sV5.9.147.226
p3505
VFGHRSDV
p3506
sV5.9.148.164
p3507
VFGHRSDV
p3508
sV5.9.151.241
p3509
VFGHRSDV
p3510
sV5.9.153.23
p3511
VFGHRSDV
p3512
sV5.9.153.5
p3513
VFGHRSDV
p3514
sV5.9.153.90
p3515
VFGHRSDV
p3516
sV5.9.153.91
p3517
VFGHRSDV
p3518
sV5.9.156.17
p3519
VFGRSDV
p3520
sV5.9.158.123
p3521
VFGHRSDV
p3522
sV5.9.158.75
p3523
VFGRSDV
p3524
sV5.9.173.35
p3525
VFGHRSDV
p3526
sV5.9.18.2
p3527
VFGHRSDV
p3528
sV5.9.21.240
p3529
VFGHRSDV
p3530
sV5.9.224.251
p3531
VFGHRSDV
p3532
sV5.9.42.230
p3533
VFGHRSDV
p3534
sV5.9.43.211
p3535
VFGHRSDV
p3536
sV5.9.44.29
p3537
VFGHRSDV
p3538
sV5.9.50.84
p3539
VFGHRSDV
p3540
sV5.9.61.207
p3541
VFGHRSDV
p3542
sV5.9.68.49
p3543
VFGHRSDV
p3544
sV5.9.7.130
p3545
VFGHRSDV
p3546
sV5.9.9.18
p3547
VFGHRSDV
p3548
sV5.9.98.43
p3549
VFGHRSDV
p3550
sV50.114.32.32
p3551
VFGHRSDV
p3552
sV50.236.201.218
p3553
VFGHRSDV
p3554
sV50.30.192.159
p3555
VFGHRSDV
p3556
sV50.38.37.96
p3557
VFGHRSDV
p3558
sV50.39.162.154
p3559
VFGHRSDV
p3560
sV50.39.173.54
p3561
VFGRSDV
p3562
sV50.47.141.248
p3563
VFGHRSDV
p3564
sV50.7.115.12
p3565
VFGHRSDV
p3566
sV50.7.115.67
p3567
VFGHRSDV
p3568
sV50.7.116.58
p3569
VFGRSDV
p3570
sV50.7.117.115
p3571
VFGHRSDV
p3572
sV50.7.151.127
p3573
VFGHRSDVX
p3574
sV50.7.151.32
p3575
VFGHRSDV
p3576
sV50.7.151.47
p3577
VFGHRSDV
p3578
sV50.7.176.2
p3579
VFGRSDVX
p3580
sV50.7.178.146
p3581
VFGHRSDV
p3582
sV50.7.178.98
p3583
VFGHRSDV
p3584
sV50.7.179.202
p3585
VFGHRSDV
p3586
sV50.7.179.251
p3587
VFGRSDV
p3588
sV50.7.186.38
p3589
VFGHRSDV
p3590
sV50.7.74.170
p3591
VFGHRSDV
p3592
sV50.7.74.171
p3593
VFGHRSDV
p3594
sV50.7.74.172
p3595
VFGHRSDV
p3596
sV50.7.74.173
p3597
VFGHRSDV
p3598
sV50.7.74.174
p3599
VFGHRSDV
p3600
sV50.7.8.29
p3601
VFGHRSDV
p3602
sV51.15.105.214
p3603
VFGHRSDV
p3604
sV51.15.106.67
p3605
VEFGRSDV
p3606
sV51.15.109.221
p3607
VFGHRSDV
p3608
sV51.15.112.209
p3609
VEFGHRSDV
p3610
sV51.15.113.200
p3611
VFGHRSDV
p3612
sV51.15.113.25
p3613
VFGHRSDV
p3614
sV51.15.113.84
p3615
VFGRSDV
p3616
sV51.15.113.85
p3617
VFGHRSDV
p3618
sV51.15.114.134
p3619
VFGHRSDV
p3620
sV51.15.117.50
p3621
VEFGHRSDV
p3622
sV51.15.12.218
p3623
VFGRSDV
p3624
sV51.15.122.103
p3625
VFGHRSDV
p3626
sV51.15.124.1
p3627
VFGRSDV
p3628
sV51.15.125.181
p3629
VEFGHRSDV
p3630
sV51.15.125.34
p3631
VFGHRSDV
p3632
sV51.15.126.70
p3633
VFGHRSDV
p3634
sV51.15.128.186
p3635
VFGHRSDV
p3636
sV51.15.128.2
p3637
VFGHRSDV
p3638
sV51.15.13.178
p3639
VFGHRSDV
p3640
sV51.15.131.29
p3641
VFGHRSDV
p3642
sV51.15.133.16
p3643
VFGHRSDV
p3644
sV51.15.138.251
p3645
VFGHRSDV
p3646
sV51.15.141.150
p3647
VFGHRSDV
p3648
sV51.15.166.221
p3649
VFGHRSDV
p3650
sV51.15.174.186
p3651
VFGHRSDV
p3652
sV51.15.179.153
p3653
VFGRSDV
p3654
sV51.15.18.163
p3655
VFGRSDV
p3656
sV51.15.185.201
p3657
VFGRSDV
p3658
sV51.15.187.236
p3659
VFGHRSDV
p3660
sV51.15.192.77
p3661
VFGHRSDV
p3662
sV51.15.198.202
p3663
VFGHRSDV
p3664
sV51.15.203.26
p3665
VFGHRSDV
p3666
sV51.15.208.167
p3667
VFGHRSDV
p3668
sV51.15.209.128
p3669
VEFGHRSDV
p3670
sV51.15.219.22
p3671
VFGHRSDV
p3672
sV51.15.224.0
p3673
VEFGHRSDV
p3674
sV51.15.226.118
p3675
VFGHRSDV
p3676
sV51.15.228.222
p3677
VFGHRSDV
p3678
sV51.15.230.222
p3679
VFGHRSDV
p3680
sV51.15.230.241
p3681
VFGRSDV
p3682
sV51.15.230.39
p3683
VFGHRSDV
p3684
sV51.15.232.19
p3685
VFGHRSDV
p3686
sV51.15.233.253
p3687
VEFGRSDV
p3688
sV51.15.235.211
p3689
VEFGHRSDV
p3690
sV51.15.240.100
p3691
VFGRSDV
p3692
sV51.15.240.157
p3693
VFGHRSDV
p3694
sV51.15.243.22
p3695
VFGHRSDV
p3696
sV51.15.244.99
p3697
VEFGHRSDV
p3698
sV51.15.246.170
p3699
VFGHRSDV
p3700
sV51.15.247.113
p3701
VFGHRSDV
p3702
sV51.15.249.161
p3703
VFGHRSDV
p3704
sV51.15.249.81
p3705
VFGHRSDV
p3706
sV51.15.251.89
p3707
VFGHRSDV
p3708
sV51.15.34.165
p3709
VFGHRSDV
p3710
sV51.15.36.183
p3711
VFGHRSDV
p3712
sV51.15.36.229
p3713
VFGHRSDV
p3714
sV51.15.37.97
p3715
VFGHRSDVX
p3716
sV51.15.39.65
p3717
VFGHRSDV
p3718
sV51.15.40.200
p3719
VFGHRSDV
p3720
sV51.15.43.205
p3721
VEFGHRSDV
p3722
sV51.15.44.157
p3723
VFGHRSDV
p3724
sV51.15.44.251
p3725
VFGHRSDV
p3726
sV51.15.46.15
p3727
VFGHRSDV
p3728
sV51.15.46.22
p3729
VFGHRSDV
p3730
sV51.15.47.139
p3731
VFGHRSDV
p3732
sV51.15.47.17
p3733
VFGHRSDV
p3734
sV51.15.48.204
p3735
VEFGHRSDV
p3736
sV51.15.49.134
p3737
VEFGHRSDV
p3738
sV51.15.50.36
p3739
VFGHRSDV
p3740
sV51.15.52.16
p3741
VFGHRSDV
p3742
sV51.15.53.83
p3743
VEFGHRSDV
p3744
sV51.15.54.117
p3745
VFGRSDV
p3746
sV51.15.54.182
p3747
VFGHRSDV
p3748
sV51.15.54.71
p3749
VFGHRSDV
p3750
sV51.15.56.122
p3751
VFGHRSDV
p3752
sV51.15.56.123
p3753
VFGHRSDV
p3754
sV51.15.58.175
p3755
VFGHRSDV
p3756
sV51.15.58.212
p3757
VFGHRSDV
p3758
sV51.15.59.175
p3759
VEFGHRSDV
p3760
sV51.15.59.9
p3761
VEFGHRSDV
p3762
sV51.15.60.93
p3763
VFGHRSDV
p3764
sV51.15.62.130
p3765
VFGHRSDV
p3766
sV51.15.64.194
p3767
VFGHRSDV
p3768
sV51.15.65.243
p3769
VFGHRSDV
p3770
sV51.15.68.66
p3771
VEFGHRSDV
p3772
sV51.15.7.86
p3773
VFGHRSDV
p3774
sV51.15.72.209
p3775
VFGHRSDV
p3776
sV51.15.72.30
p3777
VFGHRSDV
p3778
sV51.15.73.133
p3779
VFGHRSDV
p3780
sV51.15.73.97
p3781
VFGHRSDV
p3782
sV51.15.74.130
p3783
VFGHRSDV
p3784
sV51.15.75.120
p3785
VFGHRSDV
p3786
sV51.15.75.133
p3787
VEFGHRSDV
p3788
sV51.15.76.184
p3789
VFGHRSDV
p3790
sV51.15.76.56
p3791
VFGHRSDV
p3792
sV51.15.77.244
p3793
VFGHRSDV
p3794
sV51.15.78.0
p3795
VFGHRSDV
p3796
sV51.15.80.14
p3797
VEFGHRSDV
p3798
sV51.15.80.59
p3799
VFGHRSDV
p3800
sV51.15.80.7
p3801
VFGHRSDV
p3802
sV51.15.81.148
p3803
VFGHRSDV
p3804
sV51.15.84.8
p3805
VFGRSDV
p3806
sV51.15.88.21
p3807
VFGHRSDV
p3808
sV51.15.89.190
p3809
VFGHRSDV
p3810
sV51.15.89.218
p3811
VFGHRSDV
p3812
sV51.15.89.36
p3813
VFGHRSDV
p3814
sV51.15.9.152
p3815
VFGHRSDV
p3816
sV51.15.91.217
p3817
VFGHRSDV
p3818
sV51.15.91.7
p3819
VFGHRSDV
p3820
sV51.15.91.78
p3821
VFGHRSDV
p3822
sV51.15.92.208
p3823
VFGHRSDV
p3824
sV51.15.97.42
p3825
VFGHRSDV
p3826
sV51.158.166.175
p3827
VEFGHRSDV
p3828
sV51.158.173.137
p3829
VFGHRSDV
p3830
sV51.158.184.22
p3831
VFGRSDV
p3832
sV51.158.188.78
p3833
VFGHRSDV
p3834
sV51.158.70.1
p3835
VFGHRSDV
p3836
sV51.158.76.192
p3837
VFGHRSDV
p3838
sV51.158.79.206
p3839
VFGRSDV
p3840
sV51.254.113.172
p3841
VFGHRSDV
p3842
sV51.254.114.134
p3843
VFGRSDV
p3844
sV51.254.136.195
p3845
VFGHRSDV
p3846
sV51.254.147.57
p3847
VFGRSDV
p3848
sV51.254.147.61
p3849
VFGRSDV
p3850
sV51.254.200.106
p3851
VFGHRSDV
p3852
sV51.254.220.21
p3853
VFGHRSDV
p3854
sV51.254.35.151
p3855
VFGHRSDV
p3856
sV51.254.96.208
p3857
VFGHRSDV
p3858
sV51.255.203.235
p3859
VFGHRSDV
p3860
sV51.255.206.74
p3861
VFGHRSDV
p3862
sV51.255.26.152
p3863
VFGHRSDV
p3864
sV51.255.26.153
p3865
VFGHRSDV
p3866
sV51.255.26.154
p3867
VFGHRSDV
p3868
sV51.255.26.155
p3869
VFGHRSDV
p3870
sV51.255.39.110
p3871
VFGHRSDV
p3872
sV51.255.41.54
p3873
VFGHRSDV
p3874
sV51.255.41.65
p3875
VFGHRSDV
p3876
sV51.255.45.144
p3877
VEFGHRSDV
p3878
sV51.255.48.78
p3879
VFGHRSDV
p3880
sV51.38.107.117
p3881
VFGHRSDV
p3882
sV51.38.107.122
p3883
VFGHRSDV
p3884
sV51.38.112.240
p3885
VFGHRSDV
p3886
sV51.38.113.64
p3887
VEFGHRSDV
p3888
sV51.38.126.229
p3889
VEFGHRSDV
p3890
sV51.38.134.104
p3891
VFGHRSDV
p3892
sV51.38.134.189
p3893
VEFGHRSDV
p3894
sV51.38.140.87
p3895
VFGHRSDV
p3896
sV51.38.154.10
p3897
VFGRSDV
p3898
sV51.38.162.232
p3899
VEFGHRSDV
p3900
sV51.38.164.157
p3901
VFGHRSDV
p3902
sV51.38.180.155
p3903
VFGHRSDV
p3904
sV51.38.185.201
p3905
VFGHRSDV
p3906
sV51.38.238.137
p3907
VFGHRSDV
p3908
sV51.38.247.95
p3909
VEFGHRSDV
p3910
sV51.38.47.230
p3911
VFGHRSDV
p3912
sV51.38.64.136
p3913
VEFGRSDV
p3914
sV51.38.65.160
p3915
VFGHRSDV
p3916
sV51.38.98.5
p3917
VFGHRSDV
p3918
sV51.38.99.152
p3919
VFGHRSDV
p3920
sV51.68.136.44
p3921
VFGRSDV
p3922
sV51.68.137.123
p3923
VFGHRSDV
p3924
sV51.68.140.94
p3925
VFGHRSDV
p3926
sV51.68.170.247
p3927
VFGHRSDV
p3928
sV51.68.170.74
p3929
VFGHRSDV
p3930
sV51.68.174.112
p3931
VEFGHRSDV
p3932
sV51.68.182.30
p3933
VFGHRSDV
p3934
sV51.68.185.141
p3935
VFGHRSDV
p3936
sV51.68.186.59
p3937
VFGHRSDV
p3938
sV51.68.187.152
p3939
VFGHRSDV
p3940
sV51.68.204.139
p3941
VFGRSDV
p3942
sV51.68.205.181
p3943
VFGRSDV
p3944
sV51.68.206.28
p3945
VFGHRSDV
p3946
sV51.68.206.35
p3947
VFGHRSDV
p3948
sV51.68.214.45
p3949
VEFGRSDV
p3950
sV51.68.220.250
p3951
VFGHRSDV
p3952
sV51.75.129.204
p3953
VFGHRSDV
p3954
sV51.75.141.111
p3955
VFGHRSDV
p3956
sV51.75.143.145
p3957
VFGHRSDV
p3958
sV51.75.143.146
p3959
VFGHRSDV
p3960
sV51.75.143.150
p3961
VFGHRSDV
p3962
sV51.75.143.241
p3963
VFGHRSDV
p3964
sV51.75.144.67
p3965
VFGHRSDV
p3966
sV51.75.144.68
p3967
VFGHRSDV
p3968
sV51.75.144.69
p3969
VFGHRSDV
p3970
sV51.75.153.17
p3971
VFGHRSDV
p3972
sV51.75.153.19
p3973
VFGHRSDV
p3974
sV51.75.162.55
p3975
VFGHRSDV
p3976
sV51.75.170.221
p3977
VFGHRSDV
p3978
sV51.75.254.12
p3979
VFGHRSDV
p3980
sV51.75.254.22
p3981
VFGHRSDV
p3982
sV51.75.254.63
p3983
VFGHRSDV
p3984
sV51.75.61.194
p3985
VFGHRSDV
p3986
sV51.75.64.153
p3987
VFGHRSDV
p3988
sV51.75.65.10
p3989
VFGHRSDV
p3990
sV51.75.68.24
p3991
VFGHRSDV
p3992
sV51.75.68.7
p3993
VFGHRSDV
p3994
sV51.75.71.123
p3995
VEFGHRSDV
p3996
sV51.75.82.166
p3997
VFGHRSDV
p3998
sV51.75.85.114
p3999
VFGHRSDV
p4000
sV51.75.86.103
p4001
VFGHRSDV
p4002
sV51.77.136.241
p4003
VFGHRSDV
p4004
sV51.77.150.255
p4005
VFGHRSDV
p4006
sV51.77.193.218
p4007
VEFGHRSDV
p4008
sV51.77.201.37
p4009
VEFGRSDV
p4010
sV51.77.225.254
p4011
VFGHRSDV
p4012
sV51.77.50.229
p4013
VFGHRSDV
p4014
sV51.77.62.52
p4015
VEFGRSDV
p4016
sV51.77.72.200
p4017
VFGHRSDV
p4018
sV51.83.37.40
p4019
VFGHRSDV
p4020
sV51.83.43.118
p4021
VFGHRSDV
p4022
sV51.83.47.110
p4023
VFGHRSDV
p4024
sV51.89.133.250
p4025
VFGHRSDV
p4026
sV51.89.139.63
p4027
VFGRSDV
p4028
sV51.89.143.144
p4029
VFGHRSDV
p4030
sV51.89.143.155
p4031
VFGHRSDV
p4032
sV51.89.6.40
p4033
VFGHRSDV
p4034
sV54.36.120.156
p4035
VFGHRSDV
p4036
sV54.36.164.176
p4037
VFGHRSDV
p4038
sV54.36.165.170
p4039
VFGRSDV
p4040
sV54.36.166.86
p4041
VFGHRSDV
p4042
sV54.36.172.32
p4043
VFGHRSDV
p4044
sV54.36.189.105
p4045
VEFGRSDV
p4046
sV54.36.205.38
p4047
VFGHRSDV
p4048
sV54.36.222.37
p4049
VEFGHRSDV
p4050
sV54.36.227.247
p4051
VFGHRSDV
p4052
sV54.36.237.163
p4053
VFGHRSDV
p4054
sV54.37.136.45
p4055
VFGHRSDV
p4056
sV54.37.138.104
p4057
VFGHRSDV
p4058
sV54.37.139.118
p4059
VFGHRSDV
p4060
sV54.37.16.241
p4061
VEFGHRSDV
p4062
sV54.37.194.21
p4063
VFGRSDV
p4064
sV54.37.200.155
p4065
VFGHRSDV
p4066
sV54.37.200.157
p4067
VFGHRSDV
p4068
sV54.37.207.37
p4069
VFGHRSDV
p4070
sV54.37.207.82
p4071
VFGHRSDV
p4072
sV54.37.207.84
p4073
VFGHRSDV
p4074
sV54.37.234.66
p4075
VEFGHRSDV
p4076
sV54.37.69.249
p4077
VFGHRSDV
p4078
sV54.37.73.76
p4079
VFGHRSDV
p4080
sV54.37.74.139
p4081
VFGHRSDV
p4082
sV54.37.74.235
p4083
VFGHRSDV
p4084
sV54.37.74.60
p4085
VFGHRSDV
p4086
sV54.38.145.211
p4087
VFGHRSDV
p4088
sV54.38.36.44
p4089
VFGHRSDV
p4090
sV54.38.73.16
p4091
VFGHRSDV
p4092
sV54.38.73.17
p4093
VFGHRSDV
p4094
sV54.38.92.43
p4095
VFGHRSDV
p4096
sV54.39.148.129
p4097
VFGHRSDV
p4098
sV54.39.148.232
p4099
VEFGHRSDV
p4100
sV54.39.148.233
p4101
VEFGHRSDV
p4102
sV54.39.148.234
p4103
VEFGHRSDV
p4104
sV54.39.151.167
p4105
VEFGHRSDV
p4106
sV54.39.202.202
p4107
VFGHRSDV
p4108
sV54.39.66.61
p4109
VFGHRSDV
p4110
sV54.88.165.229
p4111
VFGRSDV
p4112
sV62.102.148.67
p4113
VEFGHRSDV
p4114
sV62.102.148.68
p4115
VEFGHRSDV
p4116
sV62.102.148.69
p4117
VEFGHRSDV
p4118
sV62.109.4.115
p4119
VFGRSDV
p4120
sV62.113.227.124
p4121
VFGHRSDV
p4122
sV62.133.157.139
p4123
VFGHRSDV
p4124
sV62.141.36.150
p4125
VFGHRSDV
p4126
sV62.141.38.69
p4127
VFGRSDV
p4128
sV62.141.39.160
p4129
VFGHRSDV
p4130
sV62.141.39.8
p4131
VFGHRSDV
p4132
sV62.141.41.110
p4133
VFGRSDV
p4134
sV62.141.48.175
p4135
VFGHRSDV
p4136
sV62.141.48.177
p4137
VFGHRSDV
p4138
sV62.141.51.90
p4139
VFGHRSDV
p4140
sV62.151.180.62
p4141
VFGHRSDV
p4142
sV62.167.26.15
p4143
VFGHRSDV
p4144
sV62.173.139.157
p4145
VFGHRSDV
p4146
sV62.203.243.175
p4147
VFGHRSDV
p4148
sV62.210.116.201
p4149
VEFGHRSDV
p4150
sV62.210.125.130
p4151
VFGHRSDV
p4152
sV62.210.136.217
p4153
VFGHRSDV
p4154
sV62.210.157.133
p4155
VFGRSDV
p4156
sV62.210.169.178
p4157
VFGRSDV
p4158
sV62.210.181.119
p4159
VFGHRSDV
p4160
sV62.210.189.34
p4161
VFGHRSDV
p4162
sV62.210.213.17
p4163
VFGHRSDV
p4164
sV62.210.217.207
p4165
VFGHRSDV
p4166
sV62.210.244.146
p4167
VFGHRSDV
p4168
sV62.210.254.132
p4169
VFGHRSDV
p4170
sV62.210.36.177
p4171
VFGRSDV
p4172
sV62.210.37.82
p4173
VEFGHRSDV
p4174
sV62.210.5.178
p4175
VFGHRSDV
p4176
sV62.210.83.207
p4177
VFGHRSDV
p4178
sV62.210.85.178
p4179
VFGHRSDV
p4180
sV62.210.93.142
p4181
VFGHRSDV
p4182
sV62.210.97.58
p4183
VFGHRSDV
p4184
sV62.214.6.61
p4185
VFGHRSDV
p4186
sV62.217.124.253
p4187
VFGHRSDV
p4188
sV62.219.3.47
p4189
VEFGHRSDV
p4190
sV62.219.3.48
p4191
VEFGHRSDV
p4192
sV62.251.113.60
p4193
VFGHRSDV
p4194
sV62.4.15.84
p4195
VFGHRSDV
p4196
sV62.78.245.129
p4197
VFGHRSDV
p4198
sV62.80.227.49
p4199
VFGHRSDV
p4200
sV63.165.242.34
p4201
VFGHRSDV
p4202
sV63.165.242.42
p4203
VFGHRSDV
p4204
sV63.227.116.162
p4205
VFGHRSDV
p4206
sV64.113.32.29
p4207
VEFGHRSDV
p4208
sV64.137.161.88
p4209
VFGHRSDV
p4210
sV64.137.163.200
p4211
VFGHRSDV
p4212
sV64.180.147.227
p4213
VFGHRSDV
p4214
sV64.27.17.140
p4215
VEFGHRSDV
p4216
sV64.79.152.132
p4217
VFGHRSDV
p4218
sV65.181.122.48
p4219
VEFGRSDV
p4220
sV65.181.124.115
p4221
VEFGHRSDV
p4222
sV65.49.20.10
p4223
VFGHRSDV
p4224
sV65.49.20.11
p4225
VFGHRSDV
p4226
sV65.49.20.12
p4227
VFGHRSDV
p4228
sV66.111.2.16
p4229
VFGHRSDV
p4230
sV66.111.2.20
p4231
VFGHRSDV
p4232
sV66.146.193.33
p4233
VEFGHRSDV
p4234
sV66.175.223.145
p4235
VFGHRSDV
p4236
sV66.206.0.138
p4237
VFGHRSDV
p4238
sV66.206.0.146
p4239
VFGHRSDV
p4240
sV66.206.0.82
p4241
VFGRSDV
p4242
sV66.206.39.73
p4243
VFGHRSDV
p4244
sV66.206.4.26
p4245
VFGHRSDV
p4246
sV66.208.64.128
p4247
VFGHRSDV
p4248
sV66.220.3.202
p4249
VFGHRSDV
p4250
sV66.228.51.207
p4251
VFGHRSDV
p4252
sV66.23.227.135
p4253
VFGHRSDV
p4254
sV66.70.204.175
p4255
VFGHRSDV
p4256
sV66.70.211.20
p4257
VFGHRSDV
p4258
sV66.70.228.168
p4259
VEFGHRSDV
p4260
sV66.70.228.174
p4261
VFGHRSDV
p4262
sV67.183.196.255
p4263
VFGRSDV
p4264
sV68.67.32.31
p4265
VFGHRSDV
p4266
sV68.69.164.120
p4267
VFGHRSDV
p4268
sV69.125.249.229
p4269
VFGHRSDV
p4270
sV69.156.68.249
p4271
VFGHRSDV
p4272
sV69.156.87.202
p4273
VFGHRSDV
p4274
sV69.163.35.222
p4275
VFGHRSDV
p4276
sV69.164.221.78
p4277
VFGHRSDV
p4278
sV69.164.222.151
p4279
VFGHRSDV
p4280
sV69.178.96.48
p4281
VFGRSDV
p4282
sV69.30.215.42
p4283
VFGHRSDV
p4284
sV69.30.219.82
p4285
VFGRSDV
p4286
sV69.62.162.178
p4287
VFGRSDV
p4288
sV70.19.41.26
p4289
VFGHRSDV
p4290
sV70.50.144.28
p4291
VFGRSDV
p4292
sV70.53.224.177
p4293
VFGHRSDV
p4294
sV70.96.196.77
p4295
VFGHRSDV
p4296
sV71.112.175.39
p4297
VFGHRSDV
p4298
sV71.145.211.234
p4299
VFGHRSDV
p4300
sV71.165.151.35
p4301
VFGHRSDV
p4302
sV71.19.144.106
p4303
VEFGHRSDV
p4304
sV71.19.144.184
p4305
VFGRSDV
p4306
sV71.19.148.20
p4307
VEFGHRSDV
p4308
sV71.19.155.121
p4309
VFGHRSDV
p4310
sV71.198.161.47
p4311
VFGHRSDV
p4312
sV72.14.179.133
p4313
VFGHRSDV
p4314
sV72.5.72.227
p4315
VFGHRSDV
p4316
sV72.66.111.142
p4317
VFGHRSDV
p4318
sV72.76.221.254
p4319
VFGHRSDV
p4320
sV73.211.181.17
p4321
VFGHRSDV
p4322
sV73.220.64.97
p4323
VFGRSDV
p4324
sV74.101.204.177
p4325
VFGHRSDV
p4326
sV74.208.251.33
p4327
VFGHRSDV
p4328
sV74.208.81.172
p4329
VFGHRSDV
p4330
sV74.50.156.7
p4331
VFGHRSDV
p4332
sV74.82.47.194
p4333
VEFGHRSDV
p4334
sV74.91.21.2
p4335
VFGHRSDV
p4336
sV74.96.164.184
p4337
VFGHRSDV
p4338
sV75.164.190.147
p4339
VFGHRSDV
p4340
sV75.34.64.170
p4341
VFGHRSDV
p4342
sV75.58.45.109
p4343
VFGHRSDV
p4344
sV76.14.151.174
p4345
VFGHRSDV
p4346
sV76.192.103.141
p4347
VFGRSDV
p4348
sV76.72.171.41
p4349
VFGHRSDV
p4350
sV77.120.113.64
p4351
VEFGRSDV
p4352
sV77.123.42.148
p4353
VFGRSDV
p4354
sV77.21.175.243
p4355
VFGHRSDV
p4356
sV77.22.188.240
p4357
VFGHRSDV
p4358
sV77.243.191.102
p4359
VFGHRSDV
p4360
sV77.247.181.162
p4361
VEFGHRSDV
p4362
sV77.247.181.163
p4363
VEFGHRSDV
p4364
sV77.247.181.164
p4365
VEFGHRSDV
p4366
sV77.247.181.165
p4367
VEFGHRSDV
p4368
sV77.247.181.166
p4369
VEFGHRSDV
p4370
sV77.37.230.167
p4371
VFGHRSDV
p4372
sV77.37.238.189
p4373
VFGHRSDV
p4374
sV77.55.215.148
p4375
VFGHRSDV
p4376
sV77.58.109.3
p4377
VFGHRSDV
p4378
sV77.58.209.37
p4379
VFGHRSDV
p4380
sV77.68.11.42
p4381
VFGHRSDV
p4382
sV77.68.213.162
p4383
VFGRSDV
p4384
sV77.68.42.132
p4385
VFGHRSDV
p4386
sV77.68.94.106
p4387
VFGHRSDV
p4388
sV77.73.64.51
p4389
VFGHRSDV
p4390
sV77.87.49.6
p4391
VFGHRSDV
p4392
sV77.87.50.6
p4393
VFGHRSDV
p4394
sV78.107.239.213
p4395
VFGHRSDV
p4396
sV78.109.23.2
p4397
VEFGHRSDV
p4398
sV78.129.150.54
p4399
VFGHRSDV
p4400
sV78.129.150.83
p4401
VFGHRSDV
p4402
sV78.129.180.14
p4403
VFGHRSDV
p4404
sV78.129.186.88
p4405
VFGHRSDV
p4406
sV78.129.208.184
p4407
VFGHRSDV
p4408
sV78.129.208.40
p4409
VFGHRSDV
p4410
sV78.129.218.126
p4411
VFGRSDV
p4412
sV78.129.218.56
p4413
VFGRSDV
p4414
sV78.130.128.106
p4415
VFGRSDVX
p4416
sV78.142.19.11
p4417
VFGHRSDV
p4418
sV78.142.19.199
p4419
VFGHRSDV
p4420
sV78.193.140.4
p4421
VFGHRSDV
p4422
sV78.194.158.141
p4423
VFGHRSDV
p4424
sV78.194.2.61
p4425
VFGRSDV
p4426
sV78.31.64.201
p4427
VFGHRSDV
p4428
sV78.46.109.234
p4429
VFGHRSDV
p4430
sV78.46.151.57
p4431
VFGHRSDV
p4432
sV78.46.177.87
p4433
VFGHRSDV
p4434
sV78.46.217.214
p4435
VFGRSDV
p4436
sV78.46.38.250
p4437
VFGHRSDV
p4438
sV78.46.60.40
p4439
VFGHRSDV
p4440
sV78.46.63.113
p4441
VEFGRSDV
p4442
sV78.46.79.4
p4443
VFGHRSDV
p4444
sV78.46.85.216
p4445
VFGHRSDV
p4446
sV78.46.98.207
p4447
VFGHRSDV
p4448
sV78.47.134.196
p4449
VFGHRSDV
p4450
sV78.47.159.96
p4451
VFGHRSDV
p4452
sV78.47.178.19
p4453
VFGHRSDV
p4454
sV78.47.18.110
p4455
VFGHRSDV
p4456
sV78.47.206.106
p4457
VFGHRSDV
p4458
sV78.47.221.71
p4459
VFGHRSDV
p4460
sV78.47.224.219
p4461
VFGHRSDV
p4462
sV78.47.226.12
p4463
VFGHRSDV
p4464
sV78.47.36.20
p4465
VFGHRSDV
p4466
sV78.56.40.22
p4467
VFGHRSDV
p4468
sV78.61.204.100
p4469
VFGRSDV
p4470
sV78.61.217.76
p4471
VFGHRSDV
p4472
sV78.69.12.229
p4473
VFGRSDV
p4474
sV78.69.250.241
p4475
VFGHRSDV
p4476
sV78.83.114.78
p4477
VFGHRSDV
p4478
sV78.85.156.88
p4479
VFGRSDV
p4480
sV79.111.23.100
p4481
VFGHRSDV
p4482
sV79.120.85.102
p4483
VFGHRSDV
p4484
sV79.124.60.246
p4485
VFGHRSDV
p4486
sV79.124.7.11
p4487
VFGRSDV
p4488
sV79.134.234.247
p4489
VEFGHRSDV
p4490
sV79.134.235.243
p4491
VFGRSDVX
p4492
sV79.134.235.247
p4493
VFGHRSDV
p4494
sV79.134.235.253
p4495
VFGHRSDVX
p4496
sV79.136.39.189
p4497
VFGHRSDV
p4498
sV79.137.106.154
p4499
VFGHRSDV
p4500
sV79.137.112.4
p4501
VFGHRSDV
p4502
sV79.137.112.5
p4503
VFGHRSDV
p4504
sV79.137.116.43
p4505
VFGHRSDV
p4506
sV79.137.33.131
p4507
VFGHRSDV
p4508
sV79.137.33.24
p4509
VFGHRSDV
p4510
sV79.137.39.39
p4511
VFGHRSDV
p4512
sV79.137.68.107
p4513
VFGHRSDV
p4514
sV79.137.69.3
p4515
VFGHRSDV
p4516
sV79.137.75.5
p4517
VFGHRSDV
p4518
sV79.137.85.71
p4519
VFGHRSDV
p4520
sV79.141.160.40
p4521
VFGHRSDV
p4522
sV79.142.140.230
p4523
VFGHRSDV
p4524
sV79.143.177.192
p4525
VFGRSDV
p4526
sV79.143.181.221
p4527
VFGHRSDV
p4528
sV79.145.150.147
p4529
VFGHRSDV
p4530
sV79.160.84.130
p4531
VFGHRSDV
p4532
sV79.172.193.32
p4533
VFGHRSDVX
p4534
sV79.172.204.36
p4535
VFGHRSDV
p4536
sV79.18.64.119
p4537
VFGRSDV
p4538
sV8.26.21.143
p4539
VFGHRSDV
p4540
sV80.100.250.244
p4541
VFGHRSDV
p4542
sV80.101.143.242
p4543
VFGHRSDV
p4544
sV80.108.230.166
p4545
VFGHRSDV
p4546
sV80.112.144.71
p4547
VFGHRSDV
p4548
sV80.114.189.51
p4549
VFGHRSDV
p4550
sV80.127.107.179
p4551
VFGHRSDV
p4552
sV80.127.116.96
p4553
VEFGRSDV
p4554
sV80.127.118.93
p4555
VFGHRSDV
p4556
sV80.127.137.14
p4557
VFGHRSDV
p4558
sV80.127.137.19
p4559
VFGHRSDV
p4560
sV80.127.147.222
p4561
VFGHRSDV
p4562
sV80.127.151.162
p4563
VFGRSDV
p4564
sV80.127.152.30
p4565
VFGRSDV
p4566
sV80.135.178.221
p4567
VFGHRSDV
p4568
sV80.208.178.239
p4569
VFGHRSDV
p4570
sV80.208.179.216
p4571
VFGHRSDV
p4572
sV80.209.195.43
p4573
VFGHRSDV
p4574
sV80.209.230.87
p4575
VFGHRSDV
p4576
sV80.209.252.142
p4577
VFGHRSDV
p4578
sV80.210.72.231
p4579
VFGRSDV
p4580
sV80.211.183.59
p4581
VFGHRSDV
p4582
sV80.211.185.153
p4583
VFGHRSDV
p4584
sV80.211.192.151
p4585
VFGHRSDV
p4586
sV80.211.89.207
p4587
VFGHRSDV
p4588
sV80.212.163.22
p4589
VFGRSDV
p4590
sV80.229.152.228
p4591
VFGHRSDV
p4592
sV80.241.213.86
p4593
VFGHRSDV
p4594
sV80.241.214.102
p4595
VFGHRSDV
p4596
sV80.241.220.57
p4597
VFGHRSDV
p4598
sV80.253.92.93
p4599
VFGRSDV
p4600
sV80.31.48.18
p4601
VFGHRSDV
p4602
sV80.66.135.123
p4603
VFGHRSDV
p4604
sV80.66.135.13
p4605
VFGHRSDV
p4606
sV80.67.167.81
p4607
VFGHRSDV
p4608
sV80.67.167.82
p4609
VFGHRSDV
p4610
sV80.67.172.162
p4611
VEFGHRSDV
p4612
sV81.0.226.3
p4613
VFGHRSDV
p4614
sV81.10.208.6
p4615
VFGHRSDV
p4616
sV81.161.163.140
p4617
VFGRSDV
p4618
sV81.169.210.56
p4619
VFGHRSDV
p4620
sV81.169.220.189
p4621
VFGRSDV
p4622
sV81.169.235.154
p4623
VFGHRSDV
p4624
sV81.169.251.133
p4625
VFGHRSDV
p4626
sV81.17.148.57
p4627
VFGHRSDV
p4628
sV81.17.16.43
p4629
VFGHRSDV
p4630
sV81.17.17.130
p4631
VFGHRSDV
p4632
sV81.17.17.131
p4633
VFGRSDV
p4634
sV81.17.30.33
p4635
VFGHRSDV
p4636
sV81.17.30.44
p4637
VFGHRSDV
p4638
sV81.17.30.48
p4639
VFGHRSDV
p4640
sV81.171.2.110
p4641
VFGHRSDV
p4642
sV81.2.197.33
p4643
VFGHRSDV
p4644
sV81.201.201.169
p4645
VFGHRSDV
p4646
sV81.22.255.146
p4647
VFGHRSDV
p4648
sV81.236.171.34
p4649
VFGHRSDV
p4650
sV81.237.206.224
p4651
VFGRSDV
p4652
sV81.37.100.204
p4653
VFGHRSDV
p4654
sV81.6.40.105
p4655
VFGHRSDV
p4656
sV81.67.109.95
p4657
VFGHRSDV
p4658
sV81.7.11.186
p4659
VFGHRSDV
p4660
sV81.7.11.253
p4661
VFGHRSDV
p4662
sV81.7.11.33
p4663
VFGHRSDV
p4664
sV81.7.11.96
p4665
VFGRSDV
p4666
sV81.7.13.84
p4667
VFGHRSDV
p4668
sV81.7.16.177
p4669
VFGHRSDV
p4670
sV81.7.16.182
p4671
VFGHRSDV
p4672
sV81.7.18.7
p4673
VFGHRSDV
p4674
sV81.7.18.97
p4675
VFGHRSDV
p4676
sV81.7.3.67
p4677
VFGHRSDV
p4678
sV81.7.9.33
p4679
VFGHRSDV
p4680
sV82.103.140.87
p4681
VFGHRSDV
p4682
sV82.118.242.147
p4683
VFGHRSDV
p4684
sV82.124.5.201
p4685
VFGRSDV
p4686
sV82.141.39.114
p4687
VFGHRSDV
p4688
sV82.146.47.17
p4689
VFGRSDV
p4690
sV82.155.235.253
p4691
VFGHRSDV
p4692
sV82.158.100.67
p4693
VFGRSDV
p4694
sV82.165.207.106
p4695
VFGHRSDV
p4696
sV82.165.247.47
p4697
VFGHRSDV
p4698
sV82.165.67.222
p4699
VFGHRSDV
p4700
sV82.165.70.65
p4701
VFGHRSDV
p4702
sV82.181.190.22
p4703
VFGHRSDV
p4704
sV82.181.92.85
p4705
VFGHRSDV
p4706
sV82.197.160.67
p4707
VFGHRSDV
p4708
sV82.197.198.239
p4709
VFGRSDV
p4710
sV82.197.215.30
p4711
VFGHRSDV
p4712
sV82.197.218.97
p4713
VFGHRSDV
p4714
sV82.209.54.74
p4715
VFGHRSDV
p4716
sV82.221.105.198
p4717
VFGHRSDV
p4718
sV82.221.128.191
p4719
VEFGHRSDV
p4720
sV82.221.131.102
p4721
VFGHRSDVX
p4722
sV82.221.131.5
p4723
VEFGRSDV
p4724
sV82.221.131.71
p4725
VEFGHRSDV
p4726
sV82.223.14.245
p4727
VEFGHRSDV
p4728
sV82.223.21.74
p4729
VFGRSDV
p4730
sV82.251.109.9
p4731
VFGHRSDV
p4732
sV82.251.167.192
p4733
VFGRSDV
p4734
sV82.251.250.6
p4735
VFGRSDV
p4736
sV82.27.144.85
p4737
VFGHRSDV
p4738
sV82.64.78.170
p4739
VFGHRSDV
p4740
sV82.64.82.111
p4741
VFGHRSDV
p4742
sV82.94.251.227
p4743
VFGHRSDVX
p4744
sV83.136.106.130
p4745
VFGHRSDV
p4746
sV83.136.106.136
p4747
VFGHRSDVX
p4748
sV83.136.106.182
p4749
VFGHRSDV
p4750
sV83.166.144.67
p4751
VFGHRSDV
p4752
sV83.166.154.244
p4753
VFGHRSDV
p4754
sV83.168.200.204
p4755
VFGHRSDV
p4756
sV83.199.186.157
p4757
VFGRSDV
p4758
sV83.209.52.2
p4759
VFGHRSDV
p4760
sV83.212.100.100
p4761
VFGHRSDV
p4762
sV83.212.102.114
p4763
VFGHRSDV
p4764
sV83.212.104.145
p4765
VFGHRSDV
p4766
sV83.212.104.45
p4767
VFGHRSDV
p4768
sV83.212.105.87
p4769
VFGHRSDV
p4770
sV83.212.72.189
p4771
VFGHRSDV
p4772
sV83.212.75.10
p4773
VFGHRSDV
p4774
sV83.220.174.128
p4775
VFGRSDV
p4776
sV83.227.87.11
p4777
VFGHRSDV
p4778
sV83.42.123.234
p4779
VFGHRSDV
p4780
sV83.53.86.66
p4781
VFGHRSDV
p4782
sV83.86.195.126
p4783
VFGRSDV
p4784
sV83.97.80.89
p4785
VFGHRSDV
p4786
sV84.10.46.212
p4787
VFGHRSDV
p4788
sV84.10.81.49
p4789
VFGHRSDV
p4790
sV84.133.218.56
p4791
VFGRSDV
p4792
sV84.19.176.42
p4793
VFGHRSDV
p4794
sV84.194.130.155
p4795
VFGHRSDV
p4796
sV84.202.24.80
p4797
VFGHRSDV
p4798
sV84.239.153.105
p4799
VFGHRSDV
p4800
sV84.240.60.234
p4801
VFGHRSDV
p4802
sV84.241.67.49
p4803
VFGHRSDV
p4804
sV84.245.8.40
p4805
VFGHRSDV
p4806
sV84.52.252.183
p4807
VFGRSDV
p4808
sV84.55.74.9
p4809
VFGHRSDV
p4810
sV85.10.196.12
p4811
VFGHRSDV
p4812
sV85.10.196.35
p4813
VFGHRSDV
p4814
sV85.10.200.109
p4815
VFGRSDV
p4816
sV85.10.201.47
p4817
VFGRSDV
p4818
sV85.10.202.207
p4819
VFGHRSDV
p4820
sV85.10.240.250
p4821
VFGRSDV
p4822
sV85.10.243.199
p4823
VFGRSDV
p4824
sV85.143.214.143
p4825
VFGRSDV
p4826
sV85.144.240.161
p4827
VFGHRSDV
p4828
sV85.156.139.86
p4829
VFGHRSDV
p4830
sV85.159.237.210
p4831
VFGHRSDVX
p4832
sV85.17.172.75
p4833
VFGHRSDV
p4834
sV85.17.27.187
p4835
VFGHRSDV
p4836
sV85.17.65.39
p4837
VFGRSDV
p4838
sV85.17.88.177
p4839
VFGHRSDV
p4840
sV85.187.184.190
p4841
VFGRSDV
p4842
sV85.195.230.129
p4843
VFGRSDV
p4844
sV85.195.235.248
p4845
VFGHRSDV
p4846
sV85.195.255.194
p4847
VFGHRSDV
p4848
sV85.204.121.218
p4849
VFGHRSDV
p4850
sV85.204.74.139
p4851
VFGRSDV
p4852
sV85.214.130.17
p4853
VFGHRSDV
p4854
sV85.214.212.153
p4855
VFGHRSDV
p4856
sV85.214.86.123
p4857
VFGHRSDV
p4858
sV85.217.171.231
p4859
VFGHRSDV
p4860
sV85.224.158.141
p4861
VFGHRSDV
p4862
sV85.227.86.58
p4863
VFGHRSDV
p4864
sV85.229.85.213
p4865
VFGHRSDV
p4866
sV85.230.178.139
p4867
VFGHRSDV
p4868
sV85.235.250.88
p4869
VFGHRSDV
p4870
sV85.235.66.146
p4871
VFGHRSDV
p4872
sV85.248.227.163
p4873
VEFGHRSDV
p4874
sV85.248.227.164
p4875
VEFGHRSDV
p4876
sV85.248.227.165
p4877
VEFGHRSDV
p4878
sV85.25.133.34
p4879
VFGHRSDV
p4880
sV85.25.159.65
p4881
VFGHRSDV
p4882
sV85.25.213.211
p4883
VFGHRSDV
p4884
sV85.25.43.31
p4885
VFGHRSDV
p4886
sV85.25.44.141
p4887
VFGHRSDVX
p4888
sV85.255.15.54
p4889
VFGHRSDV
p4890
sV85.7.61.51
p4891
VFGHRSDV
p4892
sV85.93.16.47
p4893
VFGHRSDV
p4894
sV86.104.15.15
p4895
VFGHRSDVX
p4896
sV86.105.212.130
p4897
VFGHRSDV
p4898
sV86.105.5.133
p4899
VFGHRSDV
p4900
sV86.107.110.171
p4901
VFGHRSDV
p4902
sV86.107.110.34
p4903
VFGHRSDV
p4904
sV86.107.49.101
p4905
VFGHRSDV
p4906
sV86.15.164.215
p4907
VFGHRSDV
p4908
sV86.163.30.61
p4909
VFGRSDV
p4910
sV86.188.5.16
p4911
VFGHRSDV
p4912
sV86.52.141.134
p4913
VFGRSDV
p4914
sV86.57.149.10
p4915
VFGHRSDV
p4916
sV87.102.134.201
p4917
VFGHRSDV
p4918
sV87.110.155.49
p4919
VFGRSDV
p4920
sV87.117.247.207
p4921
VFGHRSDV
p4922
sV87.117.247.6
p4923
VFGHRSDV
p4924
sV87.118.110.27
p4925
VEFGHRSDV
p4926
sV87.118.112.136
p4927
VFGHRSDV
p4928
sV87.118.112.63
p4929
VEFGRSDV
p4930
sV87.118.116.103
p4931
VEFGHRSDV
p4932
sV87.118.116.106
p4933
VFGHRSDV
p4934
sV87.118.116.12
p4935
VEFGHRSDV
p4936
sV87.118.116.90
p4937
VEFGHRSDV
p4938
sV87.118.122.30
p4939
VEFGHRSDV
p4940
sV87.118.122.51
p4941
VEFGHRSDV
p4942
sV87.118.83.3
p4943
VFGRSDV
p4944
sV87.118.84.158
p4945
VFGHRSDV
p4946
sV87.118.92.43
p4947
VEFGHRSDV
p4948
sV87.120.254.204
p4949
VEFGRSDV
p4950
sV87.120.36.157
p4951
VEFGHRSDV
p4952
sV87.120.36.210
p4953
VFGHRSDV
p4954
sV87.120.36.212
p4955
VFGHRSDV
p4956
sV87.121.52.47
p4957
VFGHRSDV
p4958
sV87.121.98.204
p4959
VFGHRSDV
p4960
sV87.121.98.43
p4961
VFGRSDV
p4962
sV87.139.33.217
p4963
VFGRSDV
p4964
sV87.147.178.248
p4965
VFGRSDV
p4966
sV87.222.70.158
p4967
VFGHRSDV
p4968
sV87.230.19.142
p4969
VFGHRSDV
p4970
sV87.236.194.23
p4971
VFGHRSDV
p4972
sV87.236.195.253
p4973
VFGHRSDV
p4974
sV87.248.7.41
p4975
VFGHRSDV
p4976
sV87.253.152.203
p4977
VFGHRSDV
p4978
sV87.79.79.94
p4979
VFGHRSDV
p4980
sV87.92.208.189
p4981
VFGHRSDV
p4982
sV87.98.185.5
p4983
VFGRSDV
p4984
sV87.98.245.84
p4985
VFGHRSDV
p4986
sV88.109.14.29
p4987
VFGHRSDV
p4988
sV88.196.252.84
p4989
VFGHRSDV
p4990
sV88.198.106.54
p4991
VFGHRSDV
p4992
sV88.198.128.218
p4993
VFGHRSDV
p4994
sV88.198.17.248
p4995
VFGHRSDV
p4996
sV88.198.207.222
p4997
VFGHRSDV
p4998
sV88.198.62.61
p4999
VFGHRSDV
p5000
sV88.198.70.137
p5001
VFGHRSDV
p5002
sV88.202.128.193
p5003
VFGHRSDV
p5004
sV88.206.149.198
p5005
VFGHRSDV
p5006
sV88.81.52.152
p5007
VFGHRSDV
p5008
sV88.86.102.163
p5009
VFGHRSDV
p5010
sV88.95.88.250
p5011
VFGRSDV
p5012
sV88.98.252.234
p5013
VFGHRSDV
p5014
sV88.99.217.110
p5015
VFGRSDV
p5016
sV88.99.31.186
p5017
VFGRSDV
p5018
sV88.99.38.111
p5019
VFGHRSDV
p5020
sV88.99.61.201
p5021
VFGHRSDV
p5022
sV88.99.70.107
p5023
VFGHRSDV
p5024
sV89.108.87.161
p5025
VFGHRSDV
p5026
sV89.142.67.55
p5027
VFGHRSDV
p5028
sV89.163.131.198
p5029
VFGHRSDV
p5030
sV89.163.145.239
p5031
VFGHRSDV
p5032
sV89.163.216.166
p5033
VFGRSDV
p5034
sV89.163.224.143
p5035
VFGHRSDV
p5036
sV89.163.224.187
p5037
VFGHRSDV
p5038
sV89.163.224.250
p5039
VFGHRSDV
p5040
sV89.163.225.115
p5041
VFGHRSDV
p5042
sV89.163.225.145
p5043
VFGHRSDV
p5044
sV89.163.225.7
p5045
VFGHRSDV
p5046
sV89.163.242.17
p5047
VFGHRSDV
p5048
sV89.163.245.59
p5049
VFGHRSDV
p5050
sV89.187.143.31
p5051
VFGHRSDVX
p5052
sV89.187.143.81
p5053
VFGHRSDVX
p5054
sV89.191.217.1
p5055
VFGHRSDV
p5056
sV89.217.49.70
p5057
VFGRSDV
p5058
sV89.221.208.36
p5059
VFGHRSDV
p5060
sV89.221.216.191
p5061
VFGHRSDV
p5062
sV89.233.43.74
p5063
VFGHRSDV
p5064
sV89.234.157.254
p5065
VEFGHRSDV
p5066
sV89.236.112.100
p5067
VEFGHRSDV
p5068
sV89.238.128.124
p5069
VFGHRSDV
p5070
sV89.249.65.153
p5071
VFGHRSDV
p5072
sV89.249.65.249
p5073
VFGHRSDV
p5074
sV89.25.33.13
p5075
VFGRSDV
p5076
sV89.31.57.58
p5077
VEFGHRSDV
p5078
sV89.33.246.114
p5079
VFGHRSDV
p5080
sV89.35.39.108
p5081
VFGHRSDV
p5082
sV89.35.39.109
p5083
VFGHRSDV
p5084
sV89.35.39.185
p5085
VFGHRSDV
p5086
sV89.39.67.33
p5087
VFGHRSDV
p5088
sV89.40.181.107
p5089
VFGRSDV
p5090
sV89.46.100.71
p5091
VFGHRSDV
p5092
sV90.105.184.63
p5093
VFGHRSDV
p5094
sV90.155.5.6
p5095
VFGHRSDV
p5096
sV90.231.75.5
p5097
VFGHRSDV
p5098
sV90.65.144.220
p5099
VFGHRSDV
p5100
sV91.100.104.25
p5101
VFGHRSDV
p5102
sV91.106.132.151
p5103
VFGHRSDV
p5104
sV91.121.195.169
p5105
VFGHRSDV
p5106
sV91.121.2.157
p5107
VFGHRSDV
p5108
sV91.121.224.10
p5109
VFGHRSDV
p5110
sV91.121.75.85
p5111
VFGHRSDV
p5112
sV91.121.76.207
p5113
VFGHRSDV
p5114
sV91.121.82.132
p5115
VFGRSDV
p5116
sV91.121.82.25
p5117
VFGHRSDV
p5118
sV91.121.83.108
p5119
VFGHRSDV
p5120
sV91.121.85.130
p5121
VFGHRSDV
p5122
sV91.121.86.59
p5123
VFGHRSDV
p5124
sV91.132.60.9
p5125
VFGHRSDV
p5126
sV91.134.137.99
p5127
VFGHRSDV
p5128
sV91.134.140.21
p5129
VFGHRSDV
p5130
sV91.134.147.134
p5131
VFGHRSDV
p5132
sV91.143.88.62
p5133
VFGHRSDV
p5134
sV91.148.141.117
p5135
VFGHRSDV
p5136
sV91.161.46.187
p5137
VFGHRSDV
p5138
sV91.186.8.150
p5139
VFGHRSDV
p5140
sV91.198.212.250
p5141
VFGHRSDV
p5142
sV91.201.65.91
p5143
VFGHRSDV
p5144
sV91.203.145.114
p5145
VFGHRSDV
p5146
sV91.203.145.116
p5147
VEFGHRSDV
p5148
sV91.203.145.120
p5149
VEFGRSDV
p5150
sV91.203.146.126
p5151
VFGHRSDVX
p5152
sV91.203.5.165
p5153
VFGHRSDVX
p5154
sV91.207.174.75
p5155
VEFGHRSDV
p5156
sV91.211.247.246
p5157
VFGHRSDV
p5158
sV91.211.247.247
p5159
VFGHRSDV
p5160
sV91.213.112.119
p5161
VEFGHRSDV
p5162
sV91.213.233.138
p5163
VFGRSDV
p5164
sV91.213.8.89
p5165
VFGHRSDV
p5166
sV91.219.236.223
p5167
VFGHRSDV
p5168
sV91.219.236.250
p5169
VFGHRSDV
p5170
sV91.219.237.117
p5171
VFGHRSDV
p5172
sV91.219.237.244
p5173
VEFGHRSDV
p5174
sV91.219.238.120
p5175
VFGHRSDV
p5176
sV91.219.238.141
p5177
VEFGHRSDV
p5178
sV91.219.239.92
p5179
VFGHRSDV
p5180
sV91.220.220.5
p5181
VFGRSDV
p5182
sV91.221.110.5
p5183
VEFGHRSDV
p5184
sV91.221.66.21
p5185
VFGHRSDV
p5186
sV91.223.82.154
p5187
VFGHRSDV
p5188
sV91.229.20.27
p5189
VFGHRSDV
p5190
sV91.229.76.124
p5191
VFGHRSDV
p5192
sV91.233.116.119
p5193
VFGHRSDV
p5194
sV91.233.116.51
p5195
VFGHRSDV
p5196
sV91.234.19.55
p5197
VFGHRSDV
p5198
sV91.235.116.56
p5199
VFGHRSDV
p5200
sV91.236.116.87
p5201
VFGHRSDV
p5202
sV91.250.84.156
p5203
VFGHRSDV
p5204
sV91.250.98.158
p5205
VFGHRSDV
p5206
sV91.40.124.81
p5207
VFGHRSDV
p5208
sV91.55.23.250
p5209
VFGHRSDV
p5210
sV91.64.135.131
p5211
VFGHRSDV
p5212
sV91.64.241.8
p5213
VFGHRSDV
p5214
sV92.169.40.224
p5215
VFGHRSDV
p5216
sV92.171.122.221
p5217
VFGHRSDV
p5218
sV92.186.35.119
p5219
VFGHRSDV
p5220
sV92.220.217.83
p5221
VFGHRSDV
p5222
sV92.220.40.210
p5223
VFGHRSDV
p5224
sV92.222.127.232
p5225
VEFGHRSDV
p5226
sV92.222.180.10
p5227
VFGHRSDVX
p5228
sV92.222.22.113
p5229
VFGHRSDVX
p5230
sV92.222.22.91
p5231
VFGHRSDV
p5232
sV92.222.22.99
p5233
VFGHRSDV
p5234
sV92.222.38.67
p5235
VEFGHRSDV
p5236
sV92.249.143.119
p5237
VFGHRSDV
p5238
sV92.34.139.56
p5239
VFGHRSDV
p5240
sV92.38.163.21
p5241
VFGRSDV
p5242
sV92.51.245.119
p5243
VFGHRSDV
p5244
sV92.55.0.224
p5245
VFGHRSDV
p5246
sV92.60.37.105
p5247
VFGHRSDV
p5248
sV92.60.37.40
p5249
VFGHRSDV
p5250
sV92.60.39.30
p5251
VFGHRSDV
p5252
sV93.104.209.61
p5253
VFGRSDV
p5254
sV93.108.197.92
p5255
VFGRSDV
p5256
sV93.115.241.194
p5257
VFGHRSDVX
p5258
sV93.115.241.50
p5259
VFGHRSDV
p5260
sV93.115.26.181
p5261
VFGHRSDV
p5262
sV93.115.84.143
p5263
VFGHRSDV
p5264
sV93.115.86.4
p5265
VFGHRSDV
p5266
sV93.115.86.6
p5267
VFGHRSDV
p5268
sV93.115.86.8
p5269
VFGHRSDV
p5270
sV93.115.86.9
p5271
VFGHRSDV
p5272
sV93.115.91.66
p5273
VFGHRSDV
p5274
sV93.115.95.38
p5275
VFGHRSDV
p5276
sV93.115.96.15
p5277
VFGHRSDV
p5278
sV93.115.97.242
p5279
VFGHRSDV
p5280
sV93.158.216.142
p5281
VFGRSDV
p5282
sV93.174.93.133
p5283
VEFGRSDV
p5284
sV93.176.187.143
p5285
VFGHRSDV
p5286
sV93.180.157.154
p5287
VFGHRSDV
p5288
sV93.184.21.161
p5289
VFGHRSDV
p5290
sV93.186.200.144
p5291
VFGHRSDV
p5292
sV93.186.200.213
p5293
VFGHRSDV
p5294
sV93.190.88.225
p5295
VFGRSDV
p5296
sV93.190.93.40
p5297
VFGRSDV
p5298
sV93.40.7.94
p5299
VFGRSDV
p5300
sV93.70.102.129
p5301
VFGHRSDV
p5302
sV93.76.233.135
p5303
VFGHRSDV
p5304
sV93.90.195.105
p5305
VFGHRSDV
p5306
sV93.90.200.181
p5307
VFGHRSDV
p5308
sV93.90.204.219
p5309
VFGHRSDV
p5310
sV93.90.205.104
p5311
VFGHRSDV
p5312
sV93.90.206.129
p5313
VFGHRSDV
p5314
sV93.92.205.248
p5315
VFGHRSDV
p5316
sV93.92.206.64
p5317
VFGHRSDV
p5318
sV93.95.100.166
p5319
VFGHRSDV
p5320
sV93.95.100.202
p5321
VFGHRSDV
p5322
sV94.100.6.23
p5323
VFGHRSDV
p5324
sV94.100.6.27
p5325
VEFGRSDV
p5326
sV94.100.6.71
p5327
VFGHRSDV
p5328
sV94.100.6.72
p5329
VEFGHRSDV
p5330
sV94.102.51.78
p5331
VEFGRSDV
p5332
sV94.130.146.179
p5333
VFGHRSDV
p5334
sV94.130.180.220
p5335
VFGHRSDV
p5336
sV94.130.183.13
p5337
VFGHRSDV
p5338
sV94.130.186.49
p5339
VFGHRSDV
p5340
sV94.130.186.5
p5341
VFGRSDV
p5342
sV94.130.187.145
p5343
VFGHRSDV
p5344
sV94.130.187.210
p5345
VFGHRSDV
p5346
sV94.130.246.106
p5347
VFGHRSDV
p5348
sV94.130.34.199
p5349
VFGRSDV
p5350
sV94.130.40.100
p5351
VFGHRSDV
p5352
sV94.130.58.99
p5353
VFGRSDV
p5354
sV94.130.69.171
p5355
VFGHRSDV
p5356
sV94.140.116.170
p5357
VFGHRSDV
p5358
sV94.140.120.19
p5359
VFGRSDV
p5360
sV94.140.125.11
p5361
VFGRSDV
p5362
sV94.140.125.122
p5363
VFGHRSDV
p5364
sV94.140.125.206
p5365
VFGHRSDV
p5366
sV94.140.125.43
p5367
VFGHRSDV
p5368
sV94.140.125.70
p5369
VFGHRSDV
p5370
sV94.155.49.47
p5371
VFGRSDV
p5372
sV94.156.175.120
p5373
VFGHRSDV
p5374
sV94.158.245.97
p5375
VFGHRSDV
p5376
sV94.16.113.67
p5377
VFGRSDV
p5378
sV94.16.114.105
p5379
VFGHRSDV
p5380
sV94.16.114.153
p5381
VFGRSDV
p5382
sV94.16.115.123
p5383
VFGHRSDV
p5384
sV94.16.116.137
p5385
VFGHRSDV
p5386
sV94.16.122.65
p5387
VFGHRSDV
p5388
sV94.16.123.150
p5389
VFGHRSDV
p5390
sV94.16.123.169
p5391
VFGHRSDV
p5392
sV94.16.123.67
p5393
VFGHRSDV
p5394
sV94.168.35.70
p5395
VEFGHRSDV
p5396
sV94.198.98.21
p5397
VFGHRSDV
p5398
sV94.23.150.81
p5399
VFGHRSDV
p5400
sV94.23.17.58
p5401
VFGHRSDV
p5402
sV94.23.173.93
p5403
VFGHRSDV
p5404
sV94.23.194.134
p5405
VFGHRSDV
p5406
sV94.23.247.42
p5407
VFGHRSDV
p5408
sV94.23.29.204
p5409
VFGHRSDV
p5410
sV94.230.208.147
p5411
VEFGHRSDV
p5412
sV94.230.208.148
p5413
VEFGHRSDV
p5414
sV94.242.55.101
p5415
VFGHRSDV
p5416
sV94.242.57.161
p5417
VEFGHRSDV
p5418
sV94.242.59.47
p5419
VFGHRSDV
p5420
sV94.244.113.99
p5421
VFGHRSDV
p5422
sV94.27.134.219
p5423
VFGHRSDV
p5424
sV94.61.117.176
p5425
VFGHRSDV
p5426
sV94.62.46.183
p5427
VFGHRSDV
p5428
sV94.75.194.221
p5429
VFGHRSDV
p5430
sV95.128.43.164
p5431
VEFGHRSDV
p5432
sV95.130.10.69
p5433
VEFGHRSDV
p5434
sV95.130.12.33
p5435
VEFGRSDV
p5436
sV95.130.9.90
p5437
VEFGHRSDV
p5438
sV95.141.35.15
p5439
VFGHRSDVX
p5440
sV95.141.83.146
p5441
VFGHRSDV
p5442
sV95.142.161.63
p5443
VEFGHRSDV
p5444
sV95.153.31.26
p5445
VFGRSDV
p5446
sV95.153.31.8
p5447
VFGRSDV
p5448
sV95.154.194.110
p5449
VFGHRSDV
p5450
sV95.154.221.121
p5451
VFGRSDV
p5452
sV95.154.221.2
p5453
VFGHRSDV
p5454
sV95.154.221.3
p5455
VFGHRSDV
p5456
sV95.154.221.4
p5457
VFGHRSDV
p5458
sV95.154.221.6
p5459
VFGHRSDV
p5460
sV95.154.24.156
p5461
VFGHRSDV
p5462
sV95.163.252.1
p5463
VFGHRSDV
p5464
sV95.165.148.12
p5465
VFGRSDV
p5466
sV95.168.192.42
p5467
VFGHRSDV
p5468
sV95.168.216.152
p5469
VFGRSDV
p5470
sV95.169.188.103
p5471
VFGHRSDV
p5472
sV95.181.211.23
p5473
VFGRSDV
p5474
sV95.183.24.86
p5475
VFGRSDV
p5476
sV95.211.136.23
p5477
VFGHRSDV
p5478
sV95.211.138.7
p5479
VFGHRSDV
p5480
sV95.211.147.99
p5481
VFGHRSDV
p5482
sV95.211.205.138
p5483
VFGHRSDV
p5484
sV95.211.210.72
p5485
VFGHRSDV
p5486
sV95.211.214.150
p5487
VFGHRSDV
p5488
sV95.211.224.12
p5489
VFGHRSDV
p5490
sV95.211.239.222
p5491
VFGHRSDV
p5492
sV95.215.44.167
p5493
VFGHRSDV
p5494
sV95.215.45.138
p5495
VFGRSDV
p5496
sV95.215.45.188
p5497
VFGRSDV
p5498
sV95.215.46.46
p5499
VFGHRSDV
p5500
sV95.215.46.69
p5501
VFGRSDV
p5502
sV95.216.1.161
p5503
VFGHRSDV
p5504
sV95.216.115.85
p5505
VFGHRSDV
p5506
sV95.216.118.16
p5507
VFGRSDV
p5508
sV95.216.136.34
p5509
VFGHRSDV
p5510
sV95.216.137.135
p5511
VFGHRSDV
p5512
sV95.216.14.222
p5513
VFGHRSDV
p5514
sV95.216.140.157
p5515
VFGHRSDV
p5516
sV95.216.142.105
p5517
VFGHRSDV
p5518
sV95.216.145.1
p5519
VEFGRSDV
p5520
sV95.216.145.127
p5521
VFGHRSDV
p5522
sV95.216.146.117
p5523
VFGHRSDV
p5524
sV95.216.159.70
p5525
VFGHRSDV
p5526
sV95.216.17.164
p5527
VFGHRSDV
p5528
sV95.216.170.68
p5529
VFGHRSDV
p5530
sV95.216.19.207
p5531
VFGHRSDV
p5532
sV95.216.197.82
p5533
VFGHRSDV
p5534
sV95.216.198.252
p5535
VFGHRSDV
p5536
sV95.216.2.172
p5537
VFGHRSDV
p5538
sV95.216.203.16
p5539
VFGHRSDV
p5540
sV95.216.207.115
p5541
VFGHRSDV
p5542
sV95.216.209.56
p5543
VFGHRSDV
p5544
sV95.216.212.21
p5545
VFGHRSDV
p5546
sV95.216.220.19
p5547
VFGHRSDV
p5548
sV95.216.229.110
p5549
VFGHRSDV
p5550
sV95.216.241.206
p5551
VFGHRSDV
p5552
sV95.216.27.105
p5553
VFGHRSDV
p5554
sV95.216.3.166
p5555
VFGHRSDV
p5556
sV95.216.3.171
p5557
VFGHRSDV
p5558
sV95.216.33.30
p5559
VFGHRSDV
p5560
sV95.216.33.58
p5561
VFGHRSDV
p5562
sV95.216.35.84
p5563
VFGHRSDV
p5564
sV95.216.49.171
p5565
VFGHRSDV
p5566
sV95.216.54.12
p5567
VFGHRSDV
p5568
sV95.216.98.55
p5569
VFGHRSDV
p5570
sV95.216.99.156
p5571
VFGHRSDV
p5572
sV95.221.62.188
p5573
VFGHRSDV
p5574
sV95.24.131.137
p5575
VFGHRSDV
p5576
sV95.29.16.48
p5577
VFGHRSDV
p5578
sV95.31.222.18
p5579
VFGRSDV
p5580
sV95.91.22.94
p5581
VFGHRSDV
p5582
sV96.233.76.139
p5583
VFGHRSDV
p5584
sV96.244.94.245
p5585
VFGHRSDV
p5586
sV96.245.227.104
p5587
VFGHRSDV
p5588
sV96.246.197.247
p5589
VFGRSDV
p5590
sV96.253.78.108
p5591
VFGHRSDV
p5592
sV96.39.214.127
p5593
VFGHRSDV
p5594
sV97.107.132.24
p5595
VFGHRSDV
p5596
sV97.115.136.170
p5597
VFGHRSDV
p5598
sV97.118.83.65
p5599
VFGHRSDV
p5600
sV97.74.237.196
p5601
VEFGHRSDV
p5602
sV98.124.118.233
p5603
VFGHRSDV
p5604
sV98.225.157.78
p5605
VFGHRSDV
p5606
sV99.39.171.72
p5607
VFGHRSDV
p5608
s.